
bin/main.elf:     file format elf32-littlearm


Disassembly of section .isr_vector:

08000000 <InterruptVector>:
 8000000:	2004ffff 	strdcs	pc, [r4], -pc	; <UNPREDICTABLE>
 8000004:	08000451 	stmdaeq	r0, {r0, r4, r6, sl}
 8000008:	08000435 	stmdaeq	r0, {r0, r2, r4, r5, sl}
 800000c:	08000447 	stmdaeq	r0, {r0, r1, r2, r6, sl}
 8000010:	08000435 	stmdaeq	r0, {r0, r2, r4, r5, sl}
 8000014:	08000435 	stmdaeq	r0, {r0, r2, r4, r5, sl}
 8000018:	08000435 	stmdaeq	r0, {r0, r2, r4, r5, sl}
 800001c:	00000000 	andeq	r0, r0, r0
 8000020:	00000000 	andeq	r0, r0, r0
 8000024:	00000000 	andeq	r0, r0, r0
 8000028:	00000000 	andeq	r0, r0, r0
 800002c:	08000435 	stmdaeq	r0, {r0, r2, r4, r5, sl}
 8000030:	08000435 	stmdaeq	r0, {r0, r2, r4, r5, sl}
 8000034:	00000000 	andeq	r0, r0, r0
 8000038:	08000435 	stmdaeq	r0, {r0, r2, r4, r5, sl}
 800003c:	08000435 	stmdaeq	r0, {r0, r2, r4, r5, sl}
 8000040:	08000435 	stmdaeq	r0, {r0, r2, r4, r5, sl}
 8000044:	08000435 	stmdaeq	r0, {r0, r2, r4, r5, sl}
 8000048:	08000435 	stmdaeq	r0, {r0, r2, r4, r5, sl}
 800004c:	08000435 	stmdaeq	r0, {r0, r2, r4, r5, sl}
 8000050:	08000435 	stmdaeq	r0, {r0, r2, r4, r5, sl}
 8000054:	08000435 	stmdaeq	r0, {r0, r2, r4, r5, sl}
 8000058:	08000435 	stmdaeq	r0, {r0, r2, r4, r5, sl}
 800005c:	08000435 	stmdaeq	r0, {r0, r2, r4, r5, sl}
 8000060:	08000435 	stmdaeq	r0, {r0, r2, r4, r5, sl}
 8000064:	08000435 	stmdaeq	r0, {r0, r2, r4, r5, sl}
 8000068:	08000435 	stmdaeq	r0, {r0, r2, r4, r5, sl}
 800006c:	08000435 	stmdaeq	r0, {r0, r2, r4, r5, sl}
 8000070:	08000435 	stmdaeq	r0, {r0, r2, r4, r5, sl}
 8000074:	08000435 	stmdaeq	r0, {r0, r2, r4, r5, sl}
 8000078:	08000435 	stmdaeq	r0, {r0, r2, r4, r5, sl}
 800007c:	08000435 	stmdaeq	r0, {r0, r2, r4, r5, sl}
 8000080:	08000435 	stmdaeq	r0, {r0, r2, r4, r5, sl}
 8000084:	08000435 	stmdaeq	r0, {r0, r2, r4, r5, sl}
 8000088:	08000435 	stmdaeq	r0, {r0, r2, r4, r5, sl}
 800008c:	08000435 	stmdaeq	r0, {r0, r2, r4, r5, sl}
 8000090:	08000435 	stmdaeq	r0, {r0, r2, r4, r5, sl}
 8000094:	08000435 	stmdaeq	r0, {r0, r2, r4, r5, sl}
 8000098:	08000435 	stmdaeq	r0, {r0, r2, r4, r5, sl}
 800009c:	08000435 	stmdaeq	r0, {r0, r2, r4, r5, sl}
 80000a0:	08000435 	stmdaeq	r0, {r0, r2, r4, r5, sl}
 80000a4:	08000435 	stmdaeq	r0, {r0, r2, r4, r5, sl}
 80000a8:	08000435 	stmdaeq	r0, {r0, r2, r4, r5, sl}
 80000ac:	08000435 	stmdaeq	r0, {r0, r2, r4, r5, sl}
 80000b0:	08002309 	stmdaeq	r0, {r0, r3, r8, r9, sp}
 80000b4:	08000435 	stmdaeq	r0, {r0, r2, r4, r5, sl}
 80000b8:	08000435 	stmdaeq	r0, {r0, r2, r4, r5, sl}
 80000bc:	08000435 	stmdaeq	r0, {r0, r2, r4, r5, sl}
 80000c0:	08000435 	stmdaeq	r0, {r0, r2, r4, r5, sl}
 80000c4:	08000435 	stmdaeq	r0, {r0, r2, r4, r5, sl}
 80000c8:	08000435 	stmdaeq	r0, {r0, r2, r4, r5, sl}
 80000cc:	08000435 	stmdaeq	r0, {r0, r2, r4, r5, sl}
 80000d0:	08000435 	stmdaeq	r0, {r0, r2, r4, r5, sl}
 80000d4:	08000435 	stmdaeq	r0, {r0, r2, r4, r5, sl}
 80000d8:	08000435 	stmdaeq	r0, {r0, r2, r4, r5, sl}
 80000dc:	08000435 	stmdaeq	r0, {r0, r2, r4, r5, sl}
 80000e0:	08000435 	stmdaeq	r0, {r0, r2, r4, r5, sl}
 80000e4:	08000435 	stmdaeq	r0, {r0, r2, r4, r5, sl}
 80000e8:	08000435 	stmdaeq	r0, {r0, r2, r4, r5, sl}
 80000ec:	08000435 	stmdaeq	r0, {r0, r2, r4, r5, sl}
 80000f0:	08000435 	stmdaeq	r0, {r0, r2, r4, r5, sl}
 80000f4:	08000435 	stmdaeq	r0, {r0, r2, r4, r5, sl}
 80000f8:	08000435 	stmdaeq	r0, {r0, r2, r4, r5, sl}
 80000fc:	08000435 	stmdaeq	r0, {r0, r2, r4, r5, sl}
 8000100:	08000435 	stmdaeq	r0, {r0, r2, r4, r5, sl}
 8000104:	08000435 	stmdaeq	r0, {r0, r2, r4, r5, sl}
 8000108:	08000435 	stmdaeq	r0, {r0, r2, r4, r5, sl}
 800010c:	08000435 	stmdaeq	r0, {r0, r2, r4, r5, sl}
 8000110:	08000435 	stmdaeq	r0, {r0, r2, r4, r5, sl}
 8000114:	08000435 	stmdaeq	r0, {r0, r2, r4, r5, sl}
 8000118:	08000435 	stmdaeq	r0, {r0, r2, r4, r5, sl}
 800011c:	08000435 	stmdaeq	r0, {r0, r2, r4, r5, sl}
 8000120:	08000435 	stmdaeq	r0, {r0, r2, r4, r5, sl}
 8000124:	08000435 	stmdaeq	r0, {r0, r2, r4, r5, sl}
 8000128:	08000435 	stmdaeq	r0, {r0, r2, r4, r5, sl}
 800012c:	08000435 	stmdaeq	r0, {r0, r2, r4, r5, sl}
 8000130:	08000435 	stmdaeq	r0, {r0, r2, r4, r5, sl}
 8000134:	08000435 	stmdaeq	r0, {r0, r2, r4, r5, sl}
 8000138:	08000435 	stmdaeq	r0, {r0, r2, r4, r5, sl}
 800013c:	08000435 	stmdaeq	r0, {r0, r2, r4, r5, sl}
 8000140:	08000435 	stmdaeq	r0, {r0, r2, r4, r5, sl}
 8000144:	08000435 	stmdaeq	r0, {r0, r2, r4, r5, sl}
 8000148:	08000435 	stmdaeq	r0, {r0, r2, r4, r5, sl}
 800014c:	08000435 	stmdaeq	r0, {r0, r2, r4, r5, sl}
 8000150:	08000435 	stmdaeq	r0, {r0, r2, r4, r5, sl}
 8000154:	08000435 	stmdaeq	r0, {r0, r2, r4, r5, sl}
 8000158:	08000435 	stmdaeq	r0, {r0, r2, r4, r5, sl}
 800015c:	08000435 	stmdaeq	r0, {r0, r2, r4, r5, sl}
 8000160:	08000435 	stmdaeq	r0, {r0, r2, r4, r5, sl}
 8000164:	08000435 	stmdaeq	r0, {r0, r2, r4, r5, sl}
 8000168:	08000435 	stmdaeq	r0, {r0, r2, r4, r5, sl}
 800016c:	08000435 	stmdaeq	r0, {r0, r2, r4, r5, sl}
 8000170:	08000435 	stmdaeq	r0, {r0, r2, r4, r5, sl}
 8000174:	08000435 	stmdaeq	r0, {r0, r2, r4, r5, sl}
 8000178:	08000435 	stmdaeq	r0, {r0, r2, r4, r5, sl}
 800017c:	00000000 	andeq	r0, r0, r0
 8000180:	08000435 	stmdaeq	r0, {r0, r2, r4, r5, sl}
 8000184:	08000435 	stmdaeq	r0, {r0, r2, r4, r5, sl}
 8000188:	08000435 	stmdaeq	r0, {r0, r2, r4, r5, sl}
 800018c:	08000435 	stmdaeq	r0, {r0, r2, r4, r5, sl}
 8000190:	08000435 	stmdaeq	r0, {r0, r2, r4, r5, sl}
 8000194:	08000435 	stmdaeq	r0, {r0, r2, r4, r5, sl}
 8000198:	08000435 	stmdaeq	r0, {r0, r2, r4, r5, sl}
 800019c:	08000435 	stmdaeq	r0, {r0, r2, r4, r5, sl}
 80001a0:	08000435 	stmdaeq	r0, {r0, r2, r4, r5, sl}
 80001a4:	08000435 	stmdaeq	r0, {r0, r2, r4, r5, sl}
 80001a8:	08000435 	stmdaeq	r0, {r0, r2, r4, r5, sl}
 80001ac:	08000435 	stmdaeq	r0, {r0, r2, r4, r5, sl}
 80001b0:	08000435 	stmdaeq	r0, {r0, r2, r4, r5, sl}
 80001b4:	08000435 	stmdaeq	r0, {r0, r2, r4, r5, sl}
 80001b8:	08000435 	stmdaeq	r0, {r0, r2, r4, r5, sl}
 80001bc:	08000435 	stmdaeq	r0, {r0, r2, r4, r5, sl}
 80001c0:	08000435 	stmdaeq	r0, {r0, r2, r4, r5, sl}
 80001c4:	08000435 	stmdaeq	r0, {r0, r2, r4, r5, sl}

Disassembly of section .text:

080001c8 <deregister_tm_clones>:
 80001c8:	e59f301c 	ldr	r3, [pc, #28]	; 80001ec <deregister_tm_clones+0x24>
 80001cc:	e59f001c 	ldr	r0, [pc, #28]	; 80001f0 <deregister_tm_clones+0x28>
 80001d0:	e0433000 	sub	r3, r3, r0
 80001d4:	e3530006 	cmp	r3, #6
 80001d8:	912fff1e 	bxls	lr
 80001dc:	e59f3010 	ldr	r3, [pc, #16]	; 80001f4 <deregister_tm_clones+0x2c>
 80001e0:	e3530000 	cmp	r3, #0
 80001e4:	012fff1e 	bxeq	lr
 80001e8:	e12fff13 	bx	r3
 80001ec:	2000065b 	andcs	r0, r0, fp, asr r6
 80001f0:	20000658 	andcs	r0, r0, r8, asr r6
 80001f4:	00000000 	andeq	r0, r0, r0

080001f8 <register_tm_clones>:
 80001f8:	e59f1024 	ldr	r1, [pc, #36]	; 8000224 <register_tm_clones+0x2c>
 80001fc:	e59f0024 	ldr	r0, [pc, #36]	; 8000228 <register_tm_clones+0x30>
 8000200:	e0411000 	sub	r1, r1, r0
 8000204:	e1a01141 	asr	r1, r1, #2
 8000208:	e0811fa1 	add	r1, r1, r1, lsr #31
 800020c:	e1b010c1 	asrs	r1, r1, #1
 8000210:	012fff1e 	bxeq	lr
 8000214:	e59f3010 	ldr	r3, [pc, #16]	; 800022c <register_tm_clones+0x34>
 8000218:	e3530000 	cmp	r3, #0
 800021c:	012fff1e 	bxeq	lr
 8000220:	e12fff13 	bx	r3
 8000224:	20000658 	andcs	r0, r0, r8, asr r6
 8000228:	20000658 	andcs	r0, r0, r8, asr r6
 800022c:	00000000 	andeq	r0, r0, r0

08000230 <__do_global_dtors_aux>:
 8000230:	e92d4010 	push	{r4, lr}
 8000234:	e59f402c 	ldr	r4, [pc, #44]	; 8000268 <__do_global_dtors_aux+0x38>
 8000238:	e5d43000 	ldrb	r3, [r4]
 800023c:	e3530000 	cmp	r3, #0
 8000240:	1a000006 	bne	8000260 <__do_global_dtors_aux+0x30>
 8000244:	ebffffdf 	bl	80001c8 <deregister_tm_clones>
 8000248:	e59f301c 	ldr	r3, [pc, #28]	; 800026c <__do_global_dtors_aux+0x3c>
 800024c:	e3530000 	cmp	r3, #0
 8000250:	159f0018 	ldrne	r0, [pc, #24]	; 8000270 <__do_global_dtors_aux+0x40>
 8000254:	11a00000 	movne	r0, r0
 8000258:	e3a03001 	mov	r3, #1
 800025c:	e5c43000 	strb	r3, [r4]
 8000260:	e8bd4010 	pop	{r4, lr}
 8000264:	e12fff1e 	bx	lr
 8000268:	20000658 	andcs	r0, r0, r8, asr r6
 800026c:	00000000 	andeq	r0, r0, r0
 8000270:	08004894 	stmdaeq	r0, {r2, r4, r7, fp, lr}

08000274 <frame_dummy>:
 8000274:	e59f3040 	ldr	r3, [pc, #64]	; 80002bc <frame_dummy+0x48>
 8000278:	e3530000 	cmp	r3, #0
 800027c:	e92d4010 	push	{r4, lr}
 8000280:	159f1038 	ldrne	r1, [pc, #56]	; 80002c0 <frame_dummy+0x4c>
 8000284:	159f0038 	ldrne	r0, [pc, #56]	; 80002c4 <frame_dummy+0x50>
 8000288:	11a00000 	movne	r0, r0
 800028c:	e59f0034 	ldr	r0, [pc, #52]	; 80002c8 <frame_dummy+0x54>
 8000290:	e5903000 	ldr	r3, [r0]
 8000294:	e3530000 	cmp	r3, #0
 8000298:	1a000001 	bne	80002a4 <frame_dummy+0x30>
 800029c:	e8bd4010 	pop	{r4, lr}
 80002a0:	eaffffd4 	b	80001f8 <register_tm_clones>
 80002a4:	e59f3020 	ldr	r3, [pc, #32]	; 80002cc <frame_dummy+0x58>
 80002a8:	e3530000 	cmp	r3, #0
 80002ac:	0afffffa 	beq	800029c <frame_dummy+0x28>
 80002b0:	e1a0e00f 	mov	lr, pc
 80002b4:	e12fff13 	bx	r3
 80002b8:	eafffff7 	b	800029c <frame_dummy+0x28>
 80002bc:	00000000 	andeq	r0, r0, r0
 80002c0:	2000065c 	andcs	r0, r0, ip, asr r6
 80002c4:	08004894 	stmdaeq	r0, {r2, r4, r7, fp, lr}
 80002c8:	20000658 	andcs	r0, r0, r8, asr r6
 80002cc:	00000000 	andeq	r0, r0, r0

080002d0 <atexit>:
 80002d0:	e3a03000 	mov	r3, #0
 80002d4:	e92d4010 	push	{r4, lr}
 80002d8:	e1a01000 	mov	r1, r0
 80002dc:	e1a02003 	mov	r2, r3
 80002e0:	e1a00003 	mov	r0, r3
 80002e4:	eb00001a 	bl	8000354 <__register_exitproc>
 80002e8:	e8bd4010 	pop	{r4, lr}
 80002ec:	e12fff1e 	bx	lr

080002f0 <__cxa_atexit>:
 80002f0:	e92d4010 	push	{r4, lr}
 80002f4:	e1a03002 	mov	r3, r2
 80002f8:	e1a02001 	mov	r2, r1
 80002fc:	e1a01000 	mov	r1, r0
 8000300:	e3a00002 	mov	r0, #2
 8000304:	eb000012 	bl	8000354 <__register_exitproc>
 8000308:	e8bd4010 	pop	{r4, lr}
 800030c:	e12fff1e 	bx	lr

08000310 <__libc_fini_array>:
 8000310:	e92d4070 	push	{r4, r5, r6, lr}
 8000314:	e59f5030 	ldr	r5, [pc, #48]	; 800034c <__libc_fini_array+0x3c>
 8000318:	e59f4030 	ldr	r4, [pc, #48]	; 8000350 <__libc_fini_array+0x40>
 800031c:	e0644005 	rsb	r4, r4, r5
 8000320:	e1b04144 	asrs	r4, r4, #2
 8000324:	0a000005 	beq	8000340 <__libc_fini_array+0x30>
 8000328:	e2444001 	sub	r4, r4, #1
 800032c:	e5353004 	ldr	r3, [r5, #-4]!
 8000330:	e1a0e00f 	mov	lr, pc
 8000334:	e12fff13 	bx	r3
 8000338:	e3540000 	cmp	r4, #0
 800033c:	1afffff9 	bne	8000328 <__libc_fini_array+0x18>
 8000340:	eb001159 	bl	80048ac <_fini>
 8000344:	e8bd4070 	pop	{r4, r5, r6, lr}
 8000348:	e12fff1e 	bx	lr
 800034c:	08023b84 	stmdaeq	r2, {r2, r7, r8, r9, fp, ip, sp}
 8000350:	08023b80 	stmdaeq	r2, {r7, r8, r9, fp, ip, sp}

08000354 <__register_exitproc>:
 8000354:	e59fc0d0 	ldr	ip, [pc, #208]	; 800042c <__register_exitproc+0xd8>
 8000358:	e92d41f0 	push	{r4, r5, r6, r7, r8, lr}
 800035c:	e59c4000 	ldr	r4, [ip]
 8000360:	e594c148 	ldr	ip, [r4, #328]	; 0x148
 8000364:	e35c0000 	cmp	ip, #0
 8000368:	0284cf53 	addeq	ip, r4, #332	; 0x14c
 800036c:	e59ce004 	ldr	lr, [ip, #4]
 8000370:	0584c148 	streq	ip, [r4, #328]	; 0x148
 8000374:	e35e001f 	cmp	lr, #31
 8000378:	e1a06001 	mov	r6, r1
 800037c:	e1a05000 	mov	r5, r0
 8000380:	e1a08002 	mov	r8, r2
 8000384:	e1a07003 	mov	r7, r3
 8000388:	d28e1001 	addle	r1, lr, #1
 800038c:	da00000f 	ble	80003d0 <__register_exitproc+0x7c>
 8000390:	e59f3098 	ldr	r3, [pc, #152]	; 8000430 <__register_exitproc+0xdc>
 8000394:	e3530000 	cmp	r3, #0
 8000398:	0a000021 	beq	8000424 <__register_exitproc+0xd0>
 800039c:	e3a00e19 	mov	r0, #400	; 0x190
 80003a0:	e1a00000 	nop			; (mov r0, r0)
 80003a4:	e250c000 	subs	ip, r0, #0
 80003a8:	0a00001d 	beq	8000424 <__register_exitproc+0xd0>
 80003ac:	e3a00000 	mov	r0, #0
 80003b0:	e3a01001 	mov	r1, #1
 80003b4:	e1a0e000 	mov	lr, r0
 80003b8:	e5943148 	ldr	r3, [r4, #328]	; 0x148
 80003bc:	e58c0004 	str	r0, [ip, #4]
 80003c0:	e58c3000 	str	r3, [ip]
 80003c4:	e584c148 	str	ip, [r4, #328]	; 0x148
 80003c8:	e58c0188 	str	r0, [ip, #392]	; 0x188
 80003cc:	e58c018c 	str	r0, [ip, #396]	; 0x18c
 80003d0:	e3550000 	cmp	r5, #0
 80003d4:	1a000005 	bne	80003f0 <__register_exitproc+0x9c>
 80003d8:	e3a00000 	mov	r0, #0
 80003dc:	e28ee002 	add	lr, lr, #2
 80003e0:	e58c1004 	str	r1, [ip, #4]
 80003e4:	e78c610e 	str	r6, [ip, lr, lsl #2]
 80003e8:	e8bd41f0 	pop	{r4, r5, r6, r7, r8, lr}
 80003ec:	e12fff1e 	bx	lr
 80003f0:	e3a00001 	mov	r0, #1
 80003f4:	e08c410e 	add	r4, ip, lr, lsl #2
 80003f8:	e5848088 	str	r8, [r4, #136]	; 0x88
 80003fc:	e59c3188 	ldr	r3, [ip, #392]	; 0x188
 8000400:	e1a02e10 	lsl	r2, r0, lr
 8000404:	e1830002 	orr	r0, r3, r2
 8000408:	e58c0188 	str	r0, [ip, #392]	; 0x188
 800040c:	e5847108 	str	r7, [r4, #264]	; 0x108
 8000410:	e3550002 	cmp	r5, #2
 8000414:	059c318c 	ldreq	r3, [ip, #396]	; 0x18c
 8000418:	01832002 	orreq	r2, r3, r2
 800041c:	058c218c 	streq	r2, [ip, #396]	; 0x18c
 8000420:	eaffffec 	b	80003d8 <__register_exitproc+0x84>
 8000424:	e3e00000 	mvn	r0, #0
 8000428:	eaffffee 	b	80003e8 <__register_exitproc+0x94>
 800042c:	080048c4 	stmdaeq	r0, {r2, r6, r7, fp, lr}
 8000430:	00000000 	andeq	r0, r0, r0

08000434 <Default_Handler>:
 8000434:	4668      	mov	r0, sp
 8000436:	f020 0107 	bic.w	r1, r0, #7
 800043a:	468d      	mov	sp, r1
 800043c:	b501      	push	{r0, lr}
 800043e:	e8bd 4001 	ldmia.w	sp!, {r0, lr}
 8000442:	4685      	mov	sp, r0
 8000444:	4770      	bx	lr

08000446 <HardFault_Handler>:
 8000446:	4668      	mov	r0, sp
 8000448:	f020 0107 	bic.w	r1, r0, #7
 800044c:	468d      	mov	sp, r1
 800044e:	e7fe      	b.n	800044e <HardFault_Handler+0x8>

08000450 <Reset_Handler>:
 8000450:	4913      	ldr	r1, [pc, #76]	; (80004a0 <Reset_Handler+0x50>)
 8000452:	2200      	movs	r2, #0
 8000454:	4b13      	ldr	r3, [pc, #76]	; (80004a4 <Reset_Handler+0x54>)
 8000456:	4814      	ldr	r0, [pc, #80]	; (80004a8 <Reset_Handler+0x58>)
 8000458:	1a5b      	subs	r3, r3, r1
 800045a:	089b      	lsrs	r3, r3, #2
 800045c:	429a      	cmp	r2, r3
 800045e:	d115      	bne.n	800048c <Reset_Handler+0x3c>
 8000460:	4b12      	ldr	r3, [pc, #72]	; (80004ac <Reset_Handler+0x5c>)
 8000462:	2100      	movs	r1, #0
 8000464:	4a12      	ldr	r2, [pc, #72]	; (80004b0 <Reset_Handler+0x60>)
 8000466:	4293      	cmp	r3, r2
 8000468:	d116      	bne.n	8000498 <Reset_Handler+0x48>
 800046a:	4a12      	ldr	r2, [pc, #72]	; (80004b4 <Reset_Handler+0x64>)
 800046c:	f8d2 3088 	ldr.w	r3, [r2, #136]	; 0x88
 8000470:	f443 0370 	orr.w	r3, r3, #15728640	; 0xf00000
 8000474:	f8c2 3088 	str.w	r3, [r2, #136]	; 0x88
 8000478:	f8d2 3234 	ldr.w	r3, [r2, #564]	; 0x234
 800047c:	f023 4340 	bic.w	r3, r3, #3221225472	; 0xc0000000
 8000480:	f8c2 3234 	str.w	r3, [r2, #564]	; 0x234
 8000484:	f000 f818 	bl	80004b8 <SystemInit>
 8000488:	f004 b928 	b.w	80046dc <main>
 800048c:	f850 4022 	ldr.w	r4, [r0, r2, lsl #2]
 8000490:	f841 4022 	str.w	r4, [r1, r2, lsl #2]
 8000494:	3201      	adds	r2, #1
 8000496:	e7e1      	b.n	800045c <Reset_Handler+0xc>
 8000498:	f843 1b04 	str.w	r1, [r3], #4
 800049c:	e7e3      	b.n	8000466 <Reset_Handler+0x16>
 800049e:	bf00      	nop
 80004a0:	20000000 	andcs	r0, r0, r0
 80004a4:	20000658 	andcs	r0, r0, r8, asr r6
 80004a8:	08023b84 	stmdaeq	r2, {r2, r7, r8, r9, fp, ip, sp}
 80004ac:	20000658 	andcs	r0, r0, r8, asr r6
 80004b0:	20000ab8 			; <UNDEFINED> instruction: 0x20000ab8
 80004b4:	e000ed00 	and	lr, r0, r0, lsl #26

080004b8 <SystemInit>:
 80004b8:	490f      	ldr	r1, [pc, #60]	; (80004f8 <SystemInit+0x40>)
 80004ba:	2000      	movs	r0, #0
 80004bc:	f8d1 3088 	ldr.w	r3, [r1, #136]	; 0x88
 80004c0:	f443 0370 	orr.w	r3, r3, #15728640	; 0xf00000
 80004c4:	f8c1 3088 	str.w	r3, [r1, #136]	; 0x88
 80004c8:	4b0c      	ldr	r3, [pc, #48]	; (80004fc <SystemInit+0x44>)
 80004ca:	681a      	ldr	r2, [r3, #0]
 80004cc:	f042 0201 	orr.w	r2, r2, #1
 80004d0:	601a      	str	r2, [r3, #0]
 80004d2:	6098      	str	r0, [r3, #8]
 80004d4:	681a      	ldr	r2, [r3, #0]
 80004d6:	f022 7284 	bic.w	r2, r2, #17301504	; 0x1080000
 80004da:	f422 3280 	bic.w	r2, r2, #65536	; 0x10000
 80004de:	601a      	str	r2, [r3, #0]
 80004e0:	4a07      	ldr	r2, [pc, #28]	; (8000500 <SystemInit+0x48>)
 80004e2:	605a      	str	r2, [r3, #4]
 80004e4:	681a      	ldr	r2, [r3, #0]
 80004e6:	f422 2280 	bic.w	r2, r2, #262144	; 0x40000
 80004ea:	601a      	str	r2, [r3, #0]
 80004ec:	60d8      	str	r0, [r3, #12]
 80004ee:	f04f 6300 	mov.w	r3, #134217728	; 0x8000000
 80004f2:	608b      	str	r3, [r1, #8]
 80004f4:	4770      	bx	lr
 80004f6:	bf00      	nop
 80004f8:	e000ed00 	and	lr, r0, r0, lsl #26
 80004fc:	40023800 	andmi	r3, r2, r0, lsl #16
 8000500:	24003010 	strcs	r3, [r0], #-16

08000504 <core_mpu_config>:
 8000504:	b530      	push	{r4, r5, lr}
 8000506:	4c18      	ldr	r4, [pc, #96]	; (8000568 <core_mpu_config+0x64>)
 8000508:	b085      	sub	sp, #20
 800050a:	4d18      	ldr	r5, [pc, #96]	; (800056c <core_mpu_config+0x68>)
 800050c:	2201      	movs	r2, #1
 800050e:	6a63      	ldr	r3, [r4, #36]	; 0x24
 8000510:	4668      	mov	r0, sp
 8000512:	f423 3380 	bic.w	r3, r3, #65536	; 0x10000
 8000516:	6263      	str	r3, [r4, #36]	; 0x24
 8000518:	686b      	ldr	r3, [r5, #4]
 800051a:	f023 0301 	bic.w	r3, r3, #1
 800051e:	606b      	str	r3, [r5, #4]
 8000520:	4b13      	ldr	r3, [pc, #76]	; (8000570 <core_mpu_config+0x6c>)
 8000522:	f88d 2000 	strb.w	r2, [sp]
 8000526:	9301      	str	r3, [sp, #4]
 8000528:	2311      	movs	r3, #17
 800052a:	f88d 200e 	strb.w	r2, [sp, #14]
 800052e:	f88d 3008 	strb.w	r3, [sp, #8]
 8000532:	2303      	movs	r3, #3
 8000534:	f88d 300b 	strb.w	r3, [sp, #11]
 8000538:	2300      	movs	r3, #0
 800053a:	f88d 300f 	strb.w	r3, [sp, #15]
 800053e:	f88d 300d 	strb.w	r3, [sp, #13]
 8000542:	f88d 3001 	strb.w	r3, [sp, #1]
 8000546:	f88d 300a 	strb.w	r3, [sp, #10]
 800054a:	f88d 3009 	strb.w	r3, [sp, #9]
 800054e:	f88d 300c 	strb.w	r3, [sp, #12]
 8000552:	f000 ff6d 	bl	8001430 <HAL_MPU_ConfigRegion>
 8000556:	2305      	movs	r3, #5
 8000558:	606b      	str	r3, [r5, #4]
 800055a:	6a63      	ldr	r3, [r4, #36]	; 0x24
 800055c:	f443 3380 	orr.w	r3, r3, #65536	; 0x10000
 8000560:	6263      	str	r3, [r4, #36]	; 0x24
 8000562:	b005      	add	sp, #20
 8000564:	bd30      	pop	{r4, r5, pc}
 8000566:	bf00      	nop
 8000568:	e000ed00 	and	lr, r0, r0, lsl #26
 800056c:	e000ed90 	mul	r0, r0, sp
 8000570:	20010000 	andcs	r0, r1, r0

08000574 <core_cpu_cache_enable>:
 8000574:	b5f0      	push	{r4, r5, r6, r7, lr}
 8000576:	f3bf 8f4f 	dsb	sy
 800057a:	f3bf 8f6f 	isb	sy
 800057e:	4b35      	ldr	r3, [pc, #212]	; (8000654 <core_cpu_cache_enable+0xe0>)
 8000580:	2200      	movs	r2, #0
 8000582:	f8c3 2250 	str.w	r2, [r3, #592]	; 0x250
 8000586:	f3bf 8f4f 	dsb	sy
 800058a:	f3bf 8f6f 	isb	sy
 800058e:	6959      	ldr	r1, [r3, #20]
 8000590:	f441 2180 	orr.w	r1, r1, #262144	; 0x40000
 8000594:	6159      	str	r1, [r3, #20]
 8000596:	f3bf 8f4f 	dsb	sy
 800059a:	f3bf 8f4f 	dsb	sy
 800059e:	f3bf 8f6f 	isb	sy
 80005a2:	f8c3 2250 	str.w	r2, [r3, #592]	; 0x250
 80005a6:	6959      	ldr	r1, [r3, #20]
 80005a8:	f441 3100 	orr.w	r1, r1, #131072	; 0x20000
 80005ac:	6159      	str	r1, [r3, #20]
 80005ae:	f3bf 8f4f 	dsb	sy
 80005b2:	f3bf 8f6f 	isb	sy
 80005b6:	f8c3 2084 	str.w	r2, [r3, #132]	; 0x84
 80005ba:	f3bf 8f4f 	dsb	sy
 80005be:	f8d3 2080 	ldr.w	r2, [r3, #128]	; 0x80
 80005c2:	f643 76e0 	movw	r6, #16352	; 0x3fe0
 80005c6:	f3c2 04c9 	ubfx	r4, r2, #3, #10
 80005ca:	f3c2 324e 	ubfx	r2, r2, #13, #15
 80005ce:	07a5      	lsls	r5, r4, #30
 80005d0:	0152      	lsls	r2, r2, #5
 80005d2:	ea02 0e06 	and.w	lr, r2, r6
 80005d6:	4628      	mov	r0, r5
 80005d8:	4621      	mov	r1, r4
 80005da:	ea4e 0700 	orr.w	r7, lr, r0
 80005de:	3901      	subs	r1, #1
 80005e0:	f100 4040 	add.w	r0, r0, #3221225472	; 0xc0000000
 80005e4:	f8c3 7260 	str.w	r7, [r3, #608]	; 0x260
 80005e8:	1c4f      	adds	r7, r1, #1
 80005ea:	d1f6      	bne.n	80005da <core_cpu_cache_enable+0x66>
 80005ec:	3a20      	subs	r2, #32
 80005ee:	f112 0f20 	cmn.w	r2, #32
 80005f2:	d1ee      	bne.n	80005d2 <core_cpu_cache_enable+0x5e>
 80005f4:	f3bf 8f4f 	dsb	sy
 80005f8:	f3bf 8f6f 	isb	sy
 80005fc:	2200      	movs	r2, #0
 80005fe:	f8c3 2084 	str.w	r2, [r3, #132]	; 0x84
 8000602:	f3bf 8f4f 	dsb	sy
 8000606:	f8d3 3080 	ldr.w	r3, [r3, #128]	; 0x80
 800060a:	f643 76e0 	movw	r6, #16352	; 0x3fe0
 800060e:	4a11      	ldr	r2, [pc, #68]	; (8000654 <core_cpu_cache_enable+0xe0>)
 8000610:	f3c3 04c9 	ubfx	r4, r3, #3, #10
 8000614:	f3c3 334e 	ubfx	r3, r3, #13, #15
 8000618:	07a5      	lsls	r5, r4, #30
 800061a:	015b      	lsls	r3, r3, #5
 800061c:	ea03 0e06 	and.w	lr, r3, r6
 8000620:	4628      	mov	r0, r5
 8000622:	4621      	mov	r1, r4
 8000624:	ea4e 0700 	orr.w	r7, lr, r0
 8000628:	3901      	subs	r1, #1
 800062a:	f100 4040 	add.w	r0, r0, #3221225472	; 0xc0000000
 800062e:	f8c2 7260 	str.w	r7, [r2, #608]	; 0x260
 8000632:	1c4f      	adds	r7, r1, #1
 8000634:	d1f6      	bne.n	8000624 <core_cpu_cache_enable+0xb0>
 8000636:	3b20      	subs	r3, #32
 8000638:	f113 0f20 	cmn.w	r3, #32
 800063c:	d1ee      	bne.n	800061c <core_cpu_cache_enable+0xa8>
 800063e:	f3bf 8f4f 	dsb	sy
 8000642:	6953      	ldr	r3, [r2, #20]
 8000644:	f443 3380 	orr.w	r3, r3, #65536	; 0x10000
 8000648:	6153      	str	r3, [r2, #20]
 800064a:	f3bf 8f4f 	dsb	sy
 800064e:	f3bf 8f6f 	isb	sy
 8000652:	bdf0      	pop	{r4, r5, r6, r7, pc}
 8000654:	e000ed00 	and	lr, r0, r0, lsl #26

08000658 <core_SystemClock_Config_216>:
 8000658:	b510      	push	{r4, lr}
 800065a:	2301      	movs	r3, #1
 800065c:	b092      	sub	sp, #72	; 0x48
 800065e:	2402      	movs	r4, #2
 8000660:	9306      	str	r3, [sp, #24]
 8000662:	f44f 3380 	mov.w	r3, #65536	; 0x10000
 8000666:	a806      	add	r0, sp, #24
 8000668:	940c      	str	r4, [sp, #48]	; 0x30
 800066a:	9307      	str	r3, [sp, #28]
 800066c:	f44f 0380 	mov.w	r3, #4194304	; 0x400000
 8000670:	9410      	str	r4, [sp, #64]	; 0x40
 8000672:	930d      	str	r3, [sp, #52]	; 0x34
 8000674:	2319      	movs	r3, #25
 8000676:	930e      	str	r3, [sp, #56]	; 0x38
 8000678:	f44f 73d8 	mov.w	r3, #432	; 0x1b0
 800067c:	930f      	str	r3, [sp, #60]	; 0x3c
 800067e:	2309      	movs	r3, #9
 8000680:	9311      	str	r3, [sp, #68]	; 0x44
 8000682:	f000 fefd 	bl	8001480 <HAL_RCC_OscConfig>
 8000686:	b100      	cbz	r0, 800068a <core_SystemClock_Config_216+0x32>
 8000688:	e7fe      	b.n	8000688 <core_SystemClock_Config_216+0x30>
 800068a:	f001 fa39 	bl	8001b00 <HAL_PWREx_EnableOverDrive>
 800068e:	b100      	cbz	r0, 8000692 <core_SystemClock_Config_216+0x3a>
 8000690:	e7fe      	b.n	8000690 <core_SystemClock_Config_216+0x38>
 8000692:	230f      	movs	r3, #15
 8000694:	9003      	str	r0, [sp, #12]
 8000696:	2107      	movs	r1, #7
 8000698:	a801      	add	r0, sp, #4
 800069a:	9301      	str	r3, [sp, #4]
 800069c:	f44f 53a0 	mov.w	r3, #5120	; 0x1400
 80006a0:	9402      	str	r4, [sp, #8]
 80006a2:	9304      	str	r3, [sp, #16]
 80006a4:	f44f 5380 	mov.w	r3, #4096	; 0x1000
 80006a8:	9305      	str	r3, [sp, #20]
 80006aa:	f001 f8cb 	bl	8001844 <HAL_RCC_ClockConfig>
 80006ae:	b100      	cbz	r0, 80006b2 <core_SystemClock_Config_216+0x5a>
 80006b0:	e7fe      	b.n	80006b0 <core_SystemClock_Config_216+0x58>
 80006b2:	b012      	add	sp, #72	; 0x48
 80006b4:	bd10      	pop	{r4, pc}

080006b6 <core_init>:
 80006b6:	b508      	push	{r3, lr}
 80006b8:	f7ff ff24 	bl	8000504 <core_mpu_config>
 80006bc:	f7ff ff5a 	bl	8000574 <core_cpu_cache_enable>
 80006c0:	f000 f816 	bl	80006f0 <HAL_Init>
 80006c4:	e8bd 4008 	ldmia.w	sp!, {r3, lr}
 80006c8:	f7ff bfc6 	b.w	8000658 <core_SystemClock_Config_216>

080006cc <HAL_InitTick>:
 80006cc:	b510      	push	{r4, lr}
 80006ce:	4604      	mov	r4, r0
 80006d0:	f001 f9d0 	bl	8001a74 <HAL_RCC_GetHCLKFreq>
 80006d4:	f44f 737a 	mov.w	r3, #1000	; 0x3e8
 80006d8:	fbb0 f0f3 	udiv	r0, r0, r3
 80006dc:	f000 fe92 	bl	8001404 <HAL_SYSTICK_Config>
 80006e0:	2200      	movs	r2, #0
 80006e2:	4621      	mov	r1, r4
 80006e4:	f04f 30ff 	mov.w	r0, #4294967295	; 0xffffffff
 80006e8:	f000 fe48 	bl	800137c <HAL_NVIC_SetPriority>
 80006ec:	2000      	movs	r0, #0
 80006ee:	bd10      	pop	{r4, pc}

080006f0 <HAL_Init>:
 80006f0:	4a07      	ldr	r2, [pc, #28]	; (8000710 <HAL_Init+0x20>)
 80006f2:	2003      	movs	r0, #3
 80006f4:	b508      	push	{r3, lr}
 80006f6:	6813      	ldr	r3, [r2, #0]
 80006f8:	f443 7300 	orr.w	r3, r3, #512	; 0x200
 80006fc:	6013      	str	r3, [r2, #0]
 80006fe:	f000 fe2b 	bl	8001358 <HAL_NVIC_SetPriorityGrouping>
 8000702:	200f      	movs	r0, #15
 8000704:	f7ff ffe2 	bl	80006cc <HAL_InitTick>
 8000708:	f001 fca8 	bl	800205c <HAL_MspInit>
 800070c:	2000      	movs	r0, #0
 800070e:	bd08      	pop	{r3, pc}
 8000710:	40023c00 	andmi	r3, r2, r0, lsl #24

08000714 <HAL_GetTick>:
 8000714:	4b01      	ldr	r3, [pc, #4]	; (800071c <HAL_GetTick+0x8>)
 8000716:	6818      	ldr	r0, [r3, #0]
 8000718:	4770      	bx	lr
 800071a:	bf00      	nop
 800071c:	20000674 	andcs	r0, r0, r4, ror r6

08000720 <HAL_SDRAM_MspInit>:
 8000720:	4770      	bx	lr

08000722 <HAL_SDRAM_Init>:
 8000722:	b538      	push	{r3, r4, r5, lr}
 8000724:	460d      	mov	r5, r1
 8000726:	4604      	mov	r4, r0
 8000728:	b1c8      	cbz	r0, 800075e <HAL_SDRAM_Init+0x3c>
 800072a:	f890 302c 	ldrb.w	r3, [r0, #44]	; 0x2c
 800072e:	f003 02ff 	and.w	r2, r3, #255	; 0xff
 8000732:	b91b      	cbnz	r3, 800073c <HAL_SDRAM_Init+0x1a>
 8000734:	f880 202d 	strb.w	r2, [r0, #45]	; 0x2d
 8000738:	f7ff fff2 	bl	8000720 <HAL_SDRAM_MspInit>
 800073c:	2302      	movs	r3, #2
 800073e:	1d21      	adds	r1, r4, #4
 8000740:	6820      	ldr	r0, [r4, #0]
 8000742:	f884 302c 	strb.w	r3, [r4, #44]	; 0x2c
 8000746:	f001 fa15 	bl	8001b74 <FMC_SDRAM_Init>
 800074a:	6862      	ldr	r2, [r4, #4]
 800074c:	4629      	mov	r1, r5
 800074e:	6820      	ldr	r0, [r4, #0]
 8000750:	f001 fa48 	bl	8001be4 <FMC_SDRAM_Timing_Init>
 8000754:	2301      	movs	r3, #1
 8000756:	2000      	movs	r0, #0
 8000758:	f884 302c 	strb.w	r3, [r4, #44]	; 0x2c
 800075c:	bd38      	pop	{r3, r4, r5, pc}
 800075e:	2001      	movs	r0, #1
 8000760:	bd38      	pop	{r3, r4, r5, pc}

08000762 <HAL_SDRAM_SendCommand>:
 8000762:	b538      	push	{r3, r4, r5, lr}
 8000764:	4604      	mov	r4, r0
 8000766:	f890 002c 	ldrb.w	r0, [r0, #44]	; 0x2c
 800076a:	460d      	mov	r5, r1
 800076c:	b2c0      	uxtb	r0, r0
 800076e:	2802      	cmp	r0, #2
 8000770:	d00d      	beq.n	800078e <HAL_SDRAM_SendCommand+0x2c>
 8000772:	2302      	movs	r3, #2
 8000774:	6820      	ldr	r0, [r4, #0]
 8000776:	f884 302c 	strb.w	r3, [r4, #44]	; 0x2c
 800077a:	f001 fa7b 	bl	8001c74 <FMC_SDRAM_SendCommand>
 800077e:	682b      	ldr	r3, [r5, #0]
 8000780:	2000      	movs	r0, #0
 8000782:	2b02      	cmp	r3, #2
 8000784:	bf0c      	ite	eq
 8000786:	2305      	moveq	r3, #5
 8000788:	2301      	movne	r3, #1
 800078a:	f884 302c 	strb.w	r3, [r4, #44]	; 0x2c
 800078e:	bd38      	pop	{r3, r4, r5, pc}

08000790 <HAL_SDRAM_ProgramRefreshRate>:
 8000790:	b510      	push	{r4, lr}
 8000792:	4604      	mov	r4, r0
 8000794:	f890 002c 	ldrb.w	r0, [r0, #44]	; 0x2c
 8000798:	b2c0      	uxtb	r0, r0
 800079a:	2802      	cmp	r0, #2
 800079c:	d009      	beq.n	80007b2 <HAL_SDRAM_ProgramRefreshRate+0x22>
 800079e:	2302      	movs	r3, #2
 80007a0:	6820      	ldr	r0, [r4, #0]
 80007a2:	f884 302c 	strb.w	r3, [r4, #44]	; 0x2c
 80007a6:	f001 fa8a 	bl	8001cbe <FMC_SDRAM_ProgramRefreshRate>
 80007aa:	2301      	movs	r3, #1
 80007ac:	2000      	movs	r0, #0
 80007ae:	f884 302c 	strb.w	r3, [r4, #44]	; 0x2c
 80007b2:	bd10      	pop	{r4, pc}

080007b4 <HAL_RCCEx_PeriphCLKConfig>:
 80007b4:	6803      	ldr	r3, [r0, #0]
 80007b6:	e92d 47f3 	stmdb	sp!, {r0, r1, r4, r5, r6, r7, r8, r9, sl, lr}
 80007ba:	f013 0601 	ands.w	r6, r3, #1
 80007be:	4604      	mov	r4, r0
 80007c0:	d00b      	beq.n	80007da <HAL_RCCEx_PeriphCLKConfig+0x26>
 80007c2:	4ab9      	ldr	r2, [pc, #740]	; (8000aa8 <HAL_RCCEx_PeriphCLKConfig+0x2f4>)
 80007c4:	6891      	ldr	r1, [r2, #8]
 80007c6:	f421 0100 	bic.w	r1, r1, #8388608	; 0x800000
 80007ca:	6091      	str	r1, [r2, #8]
 80007cc:	6b46      	ldr	r6, [r0, #52]	; 0x34
 80007ce:	6891      	ldr	r1, [r2, #8]
 80007d0:	4331      	orrs	r1, r6
 80007d2:	fab6 f686 	clz	r6, r6
 80007d6:	0976      	lsrs	r6, r6, #5
 80007d8:	6091      	str	r1, [r2, #8]
 80007da:	f413 2500 	ands.w	r5, r3, #524288	; 0x80000
 80007de:	d012      	beq.n	8000806 <HAL_RCCEx_PeriphCLKConfig+0x52>
 80007e0:	49b1      	ldr	r1, [pc, #708]	; (8000aa8 <HAL_RCCEx_PeriphCLKConfig+0x2f4>)
 80007e2:	6be5      	ldr	r5, [r4, #60]	; 0x3c
 80007e4:	f8d1 208c 	ldr.w	r2, [r1, #140]	; 0x8c
 80007e8:	f5b5 1f80 	cmp.w	r5, #1048576	; 0x100000
 80007ec:	f422 1240 	bic.w	r2, r2, #3145728	; 0x300000
 80007f0:	bf08      	it	eq
 80007f2:	2601      	moveq	r6, #1
 80007f4:	ea42 0205 	orr.w	r2, r2, r5
 80007f8:	bf16      	itet	ne
 80007fa:	fab5 f585 	clzne	r5, r5
 80007fe:	2500      	moveq	r5, #0
 8000800:	096d      	lsrne	r5, r5, #5
 8000802:	f8c1 208c 	str.w	r2, [r1, #140]	; 0x8c
 8000806:	02d9      	lsls	r1, r3, #11
 8000808:	d510      	bpl.n	800082c <HAL_RCCEx_PeriphCLKConfig+0x78>
 800080a:	48a7      	ldr	r0, [pc, #668]	; (8000aa8 <HAL_RCCEx_PeriphCLKConfig+0x2f4>)
 800080c:	6c21      	ldr	r1, [r4, #64]	; 0x40
 800080e:	f8d0 208c 	ldr.w	r2, [r0, #140]	; 0x8c
 8000812:	f5b1 0f80 	cmp.w	r1, #4194304	; 0x400000
 8000816:	f422 0240 	bic.w	r2, r2, #12582912	; 0xc00000
 800081a:	ea42 0201 	orr.w	r2, r2, r1
 800081e:	f8c0 208c 	str.w	r2, [r0, #140]	; 0x8c
 8000822:	f000 8213 	beq.w	8000c4c <HAL_RCCEx_PeriphCLKConfig+0x498>
 8000826:	2900      	cmp	r1, #0
 8000828:	bf08      	it	eq
 800082a:	2501      	moveq	r5, #1
 800082c:	f013 7f80 	tst.w	r3, #16777216	; 0x1000000
 8000830:	bf18      	it	ne
 8000832:	2601      	movne	r6, #1
 8000834:	069a      	lsls	r2, r3, #26
 8000836:	d543      	bpl.n	80008c0 <HAL_RCCEx_PeriphCLKConfig+0x10c>
 8000838:	2300      	movs	r3, #0
 800083a:	4f9c      	ldr	r7, [pc, #624]	; (8000aac <HAL_RCCEx_PeriphCLKConfig+0x2f8>)
 800083c:	9301      	str	r3, [sp, #4]
 800083e:	4b9a      	ldr	r3, [pc, #616]	; (8000aa8 <HAL_RCCEx_PeriphCLKConfig+0x2f4>)
 8000840:	6c1a      	ldr	r2, [r3, #64]	; 0x40
 8000842:	f042 5280 	orr.w	r2, r2, #268435456	; 0x10000000
 8000846:	641a      	str	r2, [r3, #64]	; 0x40
 8000848:	6c1b      	ldr	r3, [r3, #64]	; 0x40
 800084a:	f003 5380 	and.w	r3, r3, #268435456	; 0x10000000
 800084e:	9301      	str	r3, [sp, #4]
 8000850:	9b01      	ldr	r3, [sp, #4]
 8000852:	683b      	ldr	r3, [r7, #0]
 8000854:	f443 7380 	orr.w	r3, r3, #256	; 0x100
 8000858:	603b      	str	r3, [r7, #0]
 800085a:	f7ff ff5b 	bl	8000714 <HAL_GetTick>
 800085e:	4680      	mov	r8, r0
 8000860:	683b      	ldr	r3, [r7, #0]
 8000862:	05db      	lsls	r3, r3, #23
 8000864:	f140 81f4 	bpl.w	8000c50 <HAL_RCCEx_PeriphCLKConfig+0x49c>
 8000868:	4f8f      	ldr	r7, [pc, #572]	; (8000aa8 <HAL_RCCEx_PeriphCLKConfig+0x2f4>)
 800086a:	6b22      	ldr	r2, [r4, #48]	; 0x30
 800086c:	6f3b      	ldr	r3, [r7, #112]	; 0x70
 800086e:	4053      	eors	r3, r2
 8000870:	f413 7f40 	tst.w	r3, #768	; 0x300
 8000874:	d024      	beq.n	80008c0 <HAL_RCCEx_PeriphCLKConfig+0x10c>
 8000876:	6f3a      	ldr	r2, [r7, #112]	; 0x70
 8000878:	6f3b      	ldr	r3, [r7, #112]	; 0x70
 800087a:	f422 7140 	bic.w	r1, r2, #768	; 0x300
 800087e:	0790      	lsls	r0, r2, #30
 8000880:	f443 3380 	orr.w	r3, r3, #65536	; 0x10000
 8000884:	673b      	str	r3, [r7, #112]	; 0x70
 8000886:	6f3b      	ldr	r3, [r7, #112]	; 0x70
 8000888:	f423 3380 	bic.w	r3, r3, #65536	; 0x10000
 800088c:	673b      	str	r3, [r7, #112]	; 0x70
 800088e:	6739      	str	r1, [r7, #112]	; 0x70
 8000890:	f100 81e9 	bmi.w	8000c66 <HAL_RCCEx_PeriphCLKConfig+0x4b2>
 8000894:	6b23      	ldr	r3, [r4, #48]	; 0x30
 8000896:	f403 7240 	and.w	r2, r3, #768	; 0x300
 800089a:	f5b2 7f40 	cmp.w	r2, #768	; 0x300
 800089e:	4a82      	ldr	r2, [pc, #520]	; (8000aa8 <HAL_RCCEx_PeriphCLKConfig+0x2f4>)
 80008a0:	f040 81f1 	bne.w	8000c86 <HAL_RCCEx_PeriphCLKConfig+0x4d2>
 80008a4:	6891      	ldr	r1, [r2, #8]
 80008a6:	f023 4070 	bic.w	r0, r3, #4026531840	; 0xf0000000
 80008aa:	f421 11f8 	bic.w	r1, r1, #2031616	; 0x1f0000
 80008ae:	f420 7040 	bic.w	r0, r0, #768	; 0x300
 80008b2:	4301      	orrs	r1, r0
 80008b4:	6091      	str	r1, [r2, #8]
 80008b6:	f3c3 030b 	ubfx	r3, r3, #0, #12
 80008ba:	6f11      	ldr	r1, [r2, #112]	; 0x70
 80008bc:	430b      	orrs	r3, r1
 80008be:	6713      	str	r3, [r2, #112]	; 0x70
 80008c0:	6823      	ldr	r3, [r4, #0]
 80008c2:	06da      	lsls	r2, r3, #27
 80008c4:	d50c      	bpl.n	80008e0 <HAL_RCCEx_PeriphCLKConfig+0x12c>
 80008c6:	4a78      	ldr	r2, [pc, #480]	; (8000aa8 <HAL_RCCEx_PeriphCLKConfig+0x2f4>)
 80008c8:	f8d2 108c 	ldr.w	r1, [r2, #140]	; 0x8c
 80008cc:	f021 7180 	bic.w	r1, r1, #16777216	; 0x1000000
 80008d0:	f8c2 108c 	str.w	r1, [r2, #140]	; 0x8c
 80008d4:	f8d2 108c 	ldr.w	r1, [r2, #140]	; 0x8c
 80008d8:	6ba0      	ldr	r0, [r4, #56]	; 0x38
 80008da:	4301      	orrs	r1, r0
 80008dc:	f8c2 108c 	str.w	r1, [r2, #140]	; 0x8c
 80008e0:	045f      	lsls	r7, r3, #17
 80008e2:	d508      	bpl.n	80008f6 <HAL_RCCEx_PeriphCLKConfig+0x142>
 80008e4:	4970      	ldr	r1, [pc, #448]	; (8000aa8 <HAL_RCCEx_PeriphCLKConfig+0x2f4>)
 80008e6:	6e60      	ldr	r0, [r4, #100]	; 0x64
 80008e8:	f8d1 2090 	ldr.w	r2, [r1, #144]	; 0x90
 80008ec:	f422 3240 	bic.w	r2, r2, #196608	; 0x30000
 80008f0:	4302      	orrs	r2, r0
 80008f2:	f8c1 2090 	str.w	r2, [r1, #144]	; 0x90
 80008f6:	0418      	lsls	r0, r3, #16
 80008f8:	d508      	bpl.n	800090c <HAL_RCCEx_PeriphCLKConfig+0x158>
 80008fa:	496b      	ldr	r1, [pc, #428]	; (8000aa8 <HAL_RCCEx_PeriphCLKConfig+0x2f4>)
 80008fc:	6ea0      	ldr	r0, [r4, #104]	; 0x68
 80008fe:	f8d1 2090 	ldr.w	r2, [r1, #144]	; 0x90
 8000902:	f422 2240 	bic.w	r2, r2, #786432	; 0xc0000
 8000906:	4302      	orrs	r2, r0
 8000908:	f8c1 2090 	str.w	r2, [r1, #144]	; 0x90
 800090c:	03d9      	lsls	r1, r3, #15
 800090e:	d508      	bpl.n	8000922 <HAL_RCCEx_PeriphCLKConfig+0x16e>
 8000910:	4965      	ldr	r1, [pc, #404]	; (8000aa8 <HAL_RCCEx_PeriphCLKConfig+0x2f4>)
 8000912:	6ee0      	ldr	r0, [r4, #108]	; 0x6c
 8000914:	f8d1 2090 	ldr.w	r2, [r1, #144]	; 0x90
 8000918:	f422 1240 	bic.w	r2, r2, #3145728	; 0x300000
 800091c:	4302      	orrs	r2, r0
 800091e:	f8c1 2090 	str.w	r2, [r1, #144]	; 0x90
 8000922:	039a      	lsls	r2, r3, #14
 8000924:	d508      	bpl.n	8000938 <HAL_RCCEx_PeriphCLKConfig+0x184>
 8000926:	4960      	ldr	r1, [pc, #384]	; (8000aa8 <HAL_RCCEx_PeriphCLKConfig+0x2f4>)
 8000928:	6f20      	ldr	r0, [r4, #112]	; 0x70
 800092a:	f8d1 2090 	ldr.w	r2, [r1, #144]	; 0x90
 800092e:	f422 0240 	bic.w	r2, r2, #12582912	; 0xc00000
 8000932:	4302      	orrs	r2, r0
 8000934:	f8c1 2090 	str.w	r2, [r1, #144]	; 0x90
 8000938:	065f      	lsls	r7, r3, #25
 800093a:	d508      	bpl.n	800094e <HAL_RCCEx_PeriphCLKConfig+0x19a>
 800093c:	495a      	ldr	r1, [pc, #360]	; (8000aa8 <HAL_RCCEx_PeriphCLKConfig+0x2f4>)
 800093e:	6c60      	ldr	r0, [r4, #68]	; 0x44
 8000940:	f8d1 2090 	ldr.w	r2, [r1, #144]	; 0x90
 8000944:	f022 0203 	bic.w	r2, r2, #3
 8000948:	4302      	orrs	r2, r0
 800094a:	f8c1 2090 	str.w	r2, [r1, #144]	; 0x90
 800094e:	0618      	lsls	r0, r3, #24
 8000950:	d508      	bpl.n	8000964 <HAL_RCCEx_PeriphCLKConfig+0x1b0>
 8000952:	4955      	ldr	r1, [pc, #340]	; (8000aa8 <HAL_RCCEx_PeriphCLKConfig+0x2f4>)
 8000954:	6ca0      	ldr	r0, [r4, #72]	; 0x48
 8000956:	f8d1 2090 	ldr.w	r2, [r1, #144]	; 0x90
 800095a:	f022 020c 	bic.w	r2, r2, #12
 800095e:	4302      	orrs	r2, r0
 8000960:	f8c1 2090 	str.w	r2, [r1, #144]	; 0x90
 8000964:	05d9      	lsls	r1, r3, #23
 8000966:	d508      	bpl.n	800097a <HAL_RCCEx_PeriphCLKConfig+0x1c6>
 8000968:	494f      	ldr	r1, [pc, #316]	; (8000aa8 <HAL_RCCEx_PeriphCLKConfig+0x2f4>)
 800096a:	6ce0      	ldr	r0, [r4, #76]	; 0x4c
 800096c:	f8d1 2090 	ldr.w	r2, [r1, #144]	; 0x90
 8000970:	f022 0230 	bic.w	r2, r2, #48	; 0x30
 8000974:	4302      	orrs	r2, r0
 8000976:	f8c1 2090 	str.w	r2, [r1, #144]	; 0x90
 800097a:	059a      	lsls	r2, r3, #22
 800097c:	d508      	bpl.n	8000990 <HAL_RCCEx_PeriphCLKConfig+0x1dc>
 800097e:	494a      	ldr	r1, [pc, #296]	; (8000aa8 <HAL_RCCEx_PeriphCLKConfig+0x2f4>)
 8000980:	6d20      	ldr	r0, [r4, #80]	; 0x50
 8000982:	f8d1 2090 	ldr.w	r2, [r1, #144]	; 0x90
 8000986:	f022 02c0 	bic.w	r2, r2, #192	; 0xc0
 800098a:	4302      	orrs	r2, r0
 800098c:	f8c1 2090 	str.w	r2, [r1, #144]	; 0x90
 8000990:	055f      	lsls	r7, r3, #21
 8000992:	d508      	bpl.n	80009a6 <HAL_RCCEx_PeriphCLKConfig+0x1f2>
 8000994:	4944      	ldr	r1, [pc, #272]	; (8000aa8 <HAL_RCCEx_PeriphCLKConfig+0x2f4>)
 8000996:	6d60      	ldr	r0, [r4, #84]	; 0x54
 8000998:	f8d1 2090 	ldr.w	r2, [r1, #144]	; 0x90
 800099c:	f422 7240 	bic.w	r2, r2, #768	; 0x300
 80009a0:	4302      	orrs	r2, r0
 80009a2:	f8c1 2090 	str.w	r2, [r1, #144]	; 0x90
 80009a6:	0518      	lsls	r0, r3, #20
 80009a8:	d508      	bpl.n	80009bc <HAL_RCCEx_PeriphCLKConfig+0x208>
 80009aa:	493f      	ldr	r1, [pc, #252]	; (8000aa8 <HAL_RCCEx_PeriphCLKConfig+0x2f4>)
 80009ac:	6da0      	ldr	r0, [r4, #88]	; 0x58
 80009ae:	f8d1 2090 	ldr.w	r2, [r1, #144]	; 0x90
 80009b2:	f422 6240 	bic.w	r2, r2, #3072	; 0xc00
 80009b6:	4302      	orrs	r2, r0
 80009b8:	f8c1 2090 	str.w	r2, [r1, #144]	; 0x90
 80009bc:	04d9      	lsls	r1, r3, #19
 80009be:	d508      	bpl.n	80009d2 <HAL_RCCEx_PeriphCLKConfig+0x21e>
 80009c0:	4939      	ldr	r1, [pc, #228]	; (8000aa8 <HAL_RCCEx_PeriphCLKConfig+0x2f4>)
 80009c2:	6de0      	ldr	r0, [r4, #92]	; 0x5c
 80009c4:	f8d1 2090 	ldr.w	r2, [r1, #144]	; 0x90
 80009c8:	f422 5240 	bic.w	r2, r2, #12288	; 0x3000
 80009cc:	4302      	orrs	r2, r0
 80009ce:	f8c1 2090 	str.w	r2, [r1, #144]	; 0x90
 80009d2:	049a      	lsls	r2, r3, #18
 80009d4:	d508      	bpl.n	80009e8 <HAL_RCCEx_PeriphCLKConfig+0x234>
 80009d6:	4934      	ldr	r1, [pc, #208]	; (8000aa8 <HAL_RCCEx_PeriphCLKConfig+0x2f4>)
 80009d8:	6e20      	ldr	r0, [r4, #96]	; 0x60
 80009da:	f8d1 2090 	ldr.w	r2, [r1, #144]	; 0x90
 80009de:	f422 4240 	bic.w	r2, r2, #49152	; 0xc000
 80009e2:	4302      	orrs	r2, r0
 80009e4:	f8c1 2090 	str.w	r2, [r1, #144]	; 0x90
 80009e8:	025f      	lsls	r7, r3, #9
 80009ea:	d508      	bpl.n	80009fe <HAL_RCCEx_PeriphCLKConfig+0x24a>
 80009ec:	492e      	ldr	r1, [pc, #184]	; (8000aa8 <HAL_RCCEx_PeriphCLKConfig+0x2f4>)
 80009ee:	6fa0      	ldr	r0, [r4, #120]	; 0x78
 80009f0:	f8d1 2090 	ldr.w	r2, [r1, #144]	; 0x90
 80009f4:	f022 6280 	bic.w	r2, r2, #67108864	; 0x4000000
 80009f8:	4302      	orrs	r2, r0
 80009fa:	f8c1 2090 	str.w	r2, [r1, #144]	; 0x90
 80009fe:	0298      	lsls	r0, r3, #10
 8000a00:	d50c      	bpl.n	8000a1c <HAL_RCCEx_PeriphCLKConfig+0x268>
 8000a02:	4829      	ldr	r0, [pc, #164]	; (8000aa8 <HAL_RCCEx_PeriphCLKConfig+0x2f4>)
 8000a04:	6fe1      	ldr	r1, [r4, #124]	; 0x7c
 8000a06:	f8d0 2090 	ldr.w	r2, [r0, #144]	; 0x90
 8000a0a:	f1b1 6f00 	cmp.w	r1, #134217728	; 0x8000000
 8000a0e:	f022 6200 	bic.w	r2, r2, #134217728	; 0x8000000
 8000a12:	bf08      	it	eq
 8000a14:	2501      	moveq	r5, #1
 8000a16:	430a      	orrs	r2, r1
 8000a18:	f8c0 2090 	str.w	r2, [r0, #144]	; 0x90
 8000a1c:	f013 0f08 	tst.w	r3, #8
 8000a20:	bf18      	it	ne
 8000a22:	2501      	movne	r5, #1
 8000a24:	0359      	lsls	r1, r3, #13
 8000a26:	d508      	bpl.n	8000a3a <HAL_RCCEx_PeriphCLKConfig+0x286>
 8000a28:	491f      	ldr	r1, [pc, #124]	; (8000aa8 <HAL_RCCEx_PeriphCLKConfig+0x2f4>)
 8000a2a:	6f60      	ldr	r0, [r4, #116]	; 0x74
 8000a2c:	f8d1 2090 	ldr.w	r2, [r1, #144]	; 0x90
 8000a30:	f022 7240 	bic.w	r2, r2, #50331648	; 0x3000000
 8000a34:	4302      	orrs	r2, r0
 8000a36:	f8c1 2090 	str.w	r2, [r1, #144]	; 0x90
 8000a3a:	021a      	lsls	r2, r3, #8
 8000a3c:	d509      	bpl.n	8000a52 <HAL_RCCEx_PeriphCLKConfig+0x29e>
 8000a3e:	491a      	ldr	r1, [pc, #104]	; (8000aa8 <HAL_RCCEx_PeriphCLKConfig+0x2f4>)
 8000a40:	f8d4 0080 	ldr.w	r0, [r4, #128]	; 0x80
 8000a44:	f8d1 2090 	ldr.w	r2, [r1, #144]	; 0x90
 8000a48:	f022 5280 	bic.w	r2, r2, #268435456	; 0x10000000
 8000a4c:	4302      	orrs	r2, r0
 8000a4e:	f8c1 2090 	str.w	r2, [r1, #144]	; 0x90
 8000a52:	2e01      	cmp	r6, #1
 8000a54:	f000 811e 	beq.w	8000c94 <HAL_RCCEx_PeriphCLKConfig+0x4e0>
 8000a58:	f1b3 7f00 	cmp.w	r3, #33554432	; 0x2000000
 8000a5c:	f000 811a 	beq.w	8000c94 <HAL_RCCEx_PeriphCLKConfig+0x4e0>
 8000a60:	2d01      	cmp	r5, #1
 8000a62:	f040 80f1 	bne.w	8000c48 <HAL_RCCEx_PeriphCLKConfig+0x494>
 8000a66:	4d10      	ldr	r5, [pc, #64]	; (8000aa8 <HAL_RCCEx_PeriphCLKConfig+0x2f4>)
 8000a68:	682b      	ldr	r3, [r5, #0]
 8000a6a:	f023 5380 	bic.w	r3, r3, #268435456	; 0x10000000
 8000a6e:	602b      	str	r3, [r5, #0]
 8000a70:	f7ff fe50 	bl	8000714 <HAL_GetTick>
 8000a74:	4606      	mov	r6, r0
 8000a76:	682b      	ldr	r3, [r5, #0]
 8000a78:	009f      	lsls	r7, r3, #2
 8000a7a:	f100 822a 	bmi.w	8000ed2 <HAL_RCCEx_PeriphCLKConfig+0x71e>
 8000a7e:	6821      	ldr	r1, [r4, #0]
 8000a80:	030e      	lsls	r6, r1, #12
 8000a82:	d501      	bpl.n	8000a88 <HAL_RCCEx_PeriphCLKConfig+0x2d4>
 8000a84:	6be3      	ldr	r3, [r4, #60]	; 0x3c
 8000a86:	b123      	cbz	r3, 8000a92 <HAL_RCCEx_PeriphCLKConfig+0x2de>
 8000a88:	02cd      	lsls	r5, r1, #11
 8000a8a:	d54d      	bpl.n	8000b28 <HAL_RCCEx_PeriphCLKConfig+0x374>
 8000a8c:	6c23      	ldr	r3, [r4, #64]	; 0x40
 8000a8e:	2b00      	cmp	r3, #0
 8000a90:	d14a      	bne.n	8000b28 <HAL_RCCEx_PeriphCLKConfig+0x374>
 8000a92:	4d05      	ldr	r5, [pc, #20]	; (8000aa8 <HAL_RCCEx_PeriphCLKConfig+0x2f4>)
 8000a94:	f44f 3e40 	mov.w	lr, #196608	; 0x30000
 8000a98:	f8d5 0088 	ldr.w	r0, [r5, #136]	; 0x88
 8000a9c:	fa9e fcae 	rbit	ip, lr
 8000aa0:	f04f 46e0 	mov.w	r6, #1879048192	; 0x70000000
 8000aa4:	e004      	b.n	8000ab0 <HAL_RCCEx_PeriphCLKConfig+0x2fc>
 8000aa6:	bf00      	nop
 8000aa8:	40023800 	andmi	r3, r2, r0, lsl #16
 8000aac:	40007000 	andmi	r7, r0, r0
 8000ab0:	fabc fc8c 	clz	ip, ip
 8000ab4:	f8d5 2088 	ldr.w	r2, [r5, #136]	; 0x88
 8000ab8:	fa96 f7a6 	rbit	r7, r6
 8000abc:	f647 73c0 	movw	r3, #32704	; 0x7fc0
 8000ac0:	fab7 f787 	clz	r7, r7
 8000ac4:	fa93 f3a3 	rbit	r3, r3
 8000ac8:	fab3 f983 	clz	r9, r3
 8000acc:	fa9e feae 	rbit	lr, lr
 8000ad0:	f04f 6870 	mov.w	r8, #251658240	; 0xf000000
 8000ad4:	fabe fe8e 	clz	lr, lr
 8000ad8:	fa98 f8a8 	rbit	r8, r8
 8000adc:	fab8 f888 	clz	r8, r8
 8000ae0:	fa96 f6a6 	rbit	r6, r6
 8000ae4:	6963      	ldr	r3, [r4, #20]
 8000ae6:	f400 3040 	and.w	r0, r0, #196608	; 0x30000
 8000aea:	f002 42e0 	and.w	r2, r2, #1879048192	; 0x70000000
 8000aee:	fab6 f686 	clz	r6, r6
 8000af2:	fa03 f909 	lsl.w	r9, r3, r9
 8000af6:	69a3      	ldr	r3, [r4, #24]
 8000af8:	fa20 f00c 	lsr.w	r0, r0, ip
 8000afc:	40fa      	lsrs	r2, r7
 8000afe:	fa03 f808 	lsl.w	r8, r3, r8
 8000b02:	fa00 f00e 	lsl.w	r0, r0, lr
 8000b06:	40b2      	lsls	r2, r6
 8000b08:	ea49 0308 	orr.w	r3, r9, r8
 8000b0c:	4303      	orrs	r3, r0
 8000b0e:	4313      	orrs	r3, r2
 8000b10:	f8c5 3088 	str.w	r3, [r5, #136]	; 0x88
 8000b14:	f8d5 308c 	ldr.w	r3, [r5, #140]	; 0x8c
 8000b18:	6aa2      	ldr	r2, [r4, #40]	; 0x28
 8000b1a:	f423 53f8 	bic.w	r3, r3, #7936	; 0x1f00
 8000b1e:	3a01      	subs	r2, #1
 8000b20:	ea43 2302 	orr.w	r3, r3, r2, lsl #8
 8000b24:	f8c5 308c 	str.w	r3, [r5, #140]	; 0x8c
 8000b28:	0288      	lsls	r0, r1, #10
 8000b2a:	d53e      	bpl.n	8000baa <HAL_RCCEx_PeriphCLKConfig+0x3f6>
 8000b2c:	6fe3      	ldr	r3, [r4, #124]	; 0x7c
 8000b2e:	f1b3 6f00 	cmp.w	r3, #134217728	; 0x8000000
 8000b32:	d13a      	bne.n	8000baa <HAL_RCCEx_PeriphCLKConfig+0x3f6>
 8000b34:	4d56      	ldr	r5, [pc, #344]	; (8000c90 <HAL_RCCEx_PeriphCLKConfig+0x4dc>)
 8000b36:	f04f 6e70 	mov.w	lr, #251658240	; 0xf000000
 8000b3a:	f8d5 0088 	ldr.w	r0, [r5, #136]	; 0x88
 8000b3e:	fa9e fcae 	rbit	ip, lr
 8000b42:	f04f 46e0 	mov.w	r6, #1879048192	; 0x70000000
 8000b46:	fabc fc8c 	clz	ip, ip
 8000b4a:	f8d5 2088 	ldr.w	r2, [r5, #136]	; 0x88
 8000b4e:	fa96 f7a6 	rbit	r7, r6
 8000b52:	f647 73c0 	movw	r3, #32704	; 0x7fc0
 8000b56:	fab7 f787 	clz	r7, r7
 8000b5a:	fa93 f3a3 	rbit	r3, r3
 8000b5e:	f44f 3840 	mov.w	r8, #196608	; 0x30000
 8000b62:	fab3 f983 	clz	r9, r3
 8000b66:	fa98 f8a8 	rbit	r8, r8
 8000b6a:	fab8 f888 	clz	r8, r8
 8000b6e:	fa9e feae 	rbit	lr, lr
 8000b72:	fabe fe8e 	clz	lr, lr
 8000b76:	fa96 f6a6 	rbit	r6, r6
 8000b7a:	6963      	ldr	r3, [r4, #20]
 8000b7c:	f000 6070 	and.w	r0, r0, #251658240	; 0xf000000
 8000b80:	f002 42e0 	and.w	r2, r2, #1879048192	; 0x70000000
 8000b84:	fab6 f686 	clz	r6, r6
 8000b88:	fa03 f909 	lsl.w	r9, r3, r9
 8000b8c:	6a23      	ldr	r3, [r4, #32]
 8000b8e:	fa20 f00c 	lsr.w	r0, r0, ip
 8000b92:	40fa      	lsrs	r2, r7
 8000b94:	fa03 f808 	lsl.w	r8, r3, r8
 8000b98:	fa00 f00e 	lsl.w	r0, r0, lr
 8000b9c:	40b2      	lsls	r2, r6
 8000b9e:	ea49 0308 	orr.w	r3, r9, r8
 8000ba2:	4303      	orrs	r3, r0
 8000ba4:	4313      	orrs	r3, r2
 8000ba6:	f8c5 3088 	str.w	r3, [r5, #136]	; 0x88
 8000baa:	070a      	lsls	r2, r1, #28
 8000bac:	d540      	bpl.n	8000c30 <HAL_RCCEx_PeriphCLKConfig+0x47c>
 8000bae:	4838      	ldr	r0, [pc, #224]	; (8000c90 <HAL_RCCEx_PeriphCLKConfig+0x4dc>)
 8000bb0:	f04f 6570 	mov.w	r5, #251658240	; 0xf000000
 8000bb4:	f8d0 2088 	ldr.w	r2, [r0, #136]	; 0x88
 8000bb8:	fa95 f6a5 	rbit	r6, r5
 8000bbc:	f44f 3e40 	mov.w	lr, #196608	; 0x30000
 8000bc0:	fab6 f686 	clz	r6, r6
 8000bc4:	f8d0 1088 	ldr.w	r1, [r0, #136]	; 0x88
 8000bc8:	fa9e f8ae 	rbit	r8, lr
 8000bcc:	f647 73c0 	movw	r3, #32704	; 0x7fc0
 8000bd0:	fab8 f888 	clz	r8, r8
 8000bd4:	fa93 f3a3 	rbit	r3, r3
 8000bd8:	fab3 f783 	clz	r7, r3
 8000bdc:	fa9e feae 	rbit	lr, lr
 8000be0:	fabe fe8e 	clz	lr, lr
 8000be4:	fa95 f5a5 	rbit	r5, r5
 8000be8:	f04f 4ce0 	mov.w	ip, #1879048192	; 0x70000000
 8000bec:	fab5 f585 	clz	r5, r5
 8000bf0:	fa9c fcac 	rbit	ip, ip
 8000bf4:	6963      	ldr	r3, [r4, #20]
 8000bf6:	fabc fc8c 	clz	ip, ip
 8000bfa:	f401 3140 	and.w	r1, r1, #196608	; 0x30000
 8000bfe:	f002 6270 	and.w	r2, r2, #251658240	; 0xf000000
 8000c02:	40bb      	lsls	r3, r7
 8000c04:	69e7      	ldr	r7, [r4, #28]
 8000c06:	fa21 f108 	lsr.w	r1, r1, r8
 8000c0a:	40f2      	lsrs	r2, r6
 8000c0c:	fa07 f70c 	lsl.w	r7, r7, ip
 8000c10:	fa01 f10e 	lsl.w	r1, r1, lr
 8000c14:	40aa      	lsls	r2, r5
 8000c16:	433b      	orrs	r3, r7
 8000c18:	430b      	orrs	r3, r1
 8000c1a:	4313      	orrs	r3, r2
 8000c1c:	f8c0 3088 	str.w	r3, [r0, #136]	; 0x88
 8000c20:	f8d0 308c 	ldr.w	r3, [r0, #140]	; 0x8c
 8000c24:	6ae2      	ldr	r2, [r4, #44]	; 0x2c
 8000c26:	f423 3340 	bic.w	r3, r3, #196608	; 0x30000
 8000c2a:	4313      	orrs	r3, r2
 8000c2c:	f8c0 308c 	str.w	r3, [r0, #140]	; 0x8c
 8000c30:	4c17      	ldr	r4, [pc, #92]	; (8000c90 <HAL_RCCEx_PeriphCLKConfig+0x4dc>)
 8000c32:	6823      	ldr	r3, [r4, #0]
 8000c34:	f043 5380 	orr.w	r3, r3, #268435456	; 0x10000000
 8000c38:	6023      	str	r3, [r4, #0]
 8000c3a:	f7ff fd6b 	bl	8000714 <HAL_GetTick>
 8000c3e:	4605      	mov	r5, r0
 8000c40:	6823      	ldr	r3, [r4, #0]
 8000c42:	009b      	lsls	r3, r3, #2
 8000c44:	f140 814c 	bpl.w	8000ee0 <HAL_RCCEx_PeriphCLKConfig+0x72c>
 8000c48:	2000      	movs	r0, #0
 8000c4a:	e009      	b.n	8000c60 <HAL_RCCEx_PeriphCLKConfig+0x4ac>
 8000c4c:	2601      	movs	r6, #1
 8000c4e:	e5ed      	b.n	800082c <HAL_RCCEx_PeriphCLKConfig+0x78>
 8000c50:	f7ff fd60 	bl	8000714 <HAL_GetTick>
 8000c54:	eba0 0008 	sub.w	r0, r0, r8
 8000c58:	2864      	cmp	r0, #100	; 0x64
 8000c5a:	f67f ae01 	bls.w	8000860 <HAL_RCCEx_PeriphCLKConfig+0xac>
 8000c5e:	2003      	movs	r0, #3
 8000c60:	b002      	add	sp, #8
 8000c62:	e8bd 87f0 	ldmia.w	sp!, {r4, r5, r6, r7, r8, r9, sl, pc}
 8000c66:	f7ff fd55 	bl	8000714 <HAL_GetTick>
 8000c6a:	f241 3988 	movw	r9, #5000	; 0x1388
 8000c6e:	4680      	mov	r8, r0
 8000c70:	6f3b      	ldr	r3, [r7, #112]	; 0x70
 8000c72:	0799      	lsls	r1, r3, #30
 8000c74:	f53f ae0e 	bmi.w	8000894 <HAL_RCCEx_PeriphCLKConfig+0xe0>
 8000c78:	f7ff fd4c 	bl	8000714 <HAL_GetTick>
 8000c7c:	eba0 0008 	sub.w	r0, r0, r8
 8000c80:	4548      	cmp	r0, r9
 8000c82:	d9f5      	bls.n	8000c70 <HAL_RCCEx_PeriphCLKConfig+0x4bc>
 8000c84:	e7eb      	b.n	8000c5e <HAL_RCCEx_PeriphCLKConfig+0x4aa>
 8000c86:	6891      	ldr	r1, [r2, #8]
 8000c88:	f421 11f8 	bic.w	r1, r1, #2031616	; 0x1f0000
 8000c8c:	e612      	b.n	80008b4 <HAL_RCCEx_PeriphCLKConfig+0x100>
 8000c8e:	bf00      	nop
 8000c90:	40023800 	andmi	r3, r2, r0, lsl #16
 8000c94:	4e96      	ldr	r6, [pc, #600]	; (8000ef0 <HAL_RCCEx_PeriphCLKConfig+0x73c>)
 8000c96:	6833      	ldr	r3, [r6, #0]
 8000c98:	f023 6380 	bic.w	r3, r3, #67108864	; 0x4000000
 8000c9c:	6033      	str	r3, [r6, #0]
 8000c9e:	f7ff fd39 	bl	8000714 <HAL_GetTick>
 8000ca2:	4607      	mov	r7, r0
 8000ca4:	6833      	ldr	r3, [r6, #0]
 8000ca6:	011b      	lsls	r3, r3, #4
 8000ca8:	f100 810c 	bmi.w	8000ec4 <HAL_RCCEx_PeriphCLKConfig+0x710>
 8000cac:	6822      	ldr	r2, [r4, #0]
 8000cae:	07d7      	lsls	r7, r2, #31
 8000cb0:	d53c      	bpl.n	8000d2c <HAL_RCCEx_PeriphCLKConfig+0x578>
 8000cb2:	6b63      	ldr	r3, [r4, #52]	; 0x34
 8000cb4:	bbd3      	cbnz	r3, 8000d2c <HAL_RCCEx_PeriphCLKConfig+0x578>
 8000cb6:	f8d6 0084 	ldr.w	r0, [r6, #132]	; 0x84
 8000cba:	f44f 3c40 	mov.w	ip, #196608	; 0x30000
 8000cbe:	fa9c f8ac 	rbit	r8, ip
 8000cc2:	f04f 6770 	mov.w	r7, #251658240	; 0xf000000
 8000cc6:	fab8 f888 	clz	r8, r8
 8000cca:	f8d6 1084 	ldr.w	r1, [r6, #132]	; 0x84
 8000cce:	fa97 fea7 	rbit	lr, r7
 8000cd2:	f647 73c0 	movw	r3, #32704	; 0x7fc0
 8000cd6:	fabe fe8e 	clz	lr, lr
 8000cda:	fa93 f3a3 	rbit	r3, r3
 8000cde:	fab3 fa83 	clz	sl, r3
 8000ce2:	fa9c fcac 	rbit	ip, ip
 8000ce6:	fabc fc8c 	clz	ip, ip
 8000cea:	fa97 f7a7 	rbit	r7, r7
 8000cee:	f04f 49e0 	mov.w	r9, #1879048192	; 0x70000000
 8000cf2:	fab7 f787 	clz	r7, r7
 8000cf6:	fa99 f9a9 	rbit	r9, r9
 8000cfa:	6863      	ldr	r3, [r4, #4]
 8000cfc:	fab9 f989 	clz	r9, r9
 8000d00:	f400 3040 	and.w	r0, r0, #196608	; 0x30000
 8000d04:	f001 6170 	and.w	r1, r1, #251658240	; 0xf000000
 8000d08:	fa03 fa0a 	lsl.w	sl, r3, sl
 8000d0c:	68a3      	ldr	r3, [r4, #8]
 8000d0e:	fa20 f008 	lsr.w	r0, r0, r8
 8000d12:	fa21 f10e 	lsr.w	r1, r1, lr
 8000d16:	fa03 f909 	lsl.w	r9, r3, r9
 8000d1a:	fa00 f00c 	lsl.w	r0, r0, ip
 8000d1e:	40b9      	lsls	r1, r7
 8000d20:	ea4a 0309 	orr.w	r3, sl, r9
 8000d24:	4303      	orrs	r3, r0
 8000d26:	430b      	orrs	r3, r1
 8000d28:	f8c6 3084 	str.w	r3, [r6, #132]	; 0x84
 8000d2c:	0316      	lsls	r6, r2, #12
 8000d2e:	d503      	bpl.n	8000d38 <HAL_RCCEx_PeriphCLKConfig+0x584>
 8000d30:	6be3      	ldr	r3, [r4, #60]	; 0x3c
 8000d32:	f5b3 1f80 	cmp.w	r3, #1048576	; 0x100000
 8000d36:	d005      	beq.n	8000d44 <HAL_RCCEx_PeriphCLKConfig+0x590>
 8000d38:	02d0      	lsls	r0, r2, #11
 8000d3a:	d548      	bpl.n	8000dce <HAL_RCCEx_PeriphCLKConfig+0x61a>
 8000d3c:	6c23      	ldr	r3, [r4, #64]	; 0x40
 8000d3e:	f5b3 0f80 	cmp.w	r3, #4194304	; 0x400000
 8000d42:	d144      	bne.n	8000dce <HAL_RCCEx_PeriphCLKConfig+0x61a>
 8000d44:	4e6a      	ldr	r6, [pc, #424]	; (8000ef0 <HAL_RCCEx_PeriphCLKConfig+0x73c>)
 8000d46:	f44f 3c40 	mov.w	ip, #196608	; 0x30000
 8000d4a:	f8d6 0084 	ldr.w	r0, [r6, #132]	; 0x84
 8000d4e:	fa9c f8ac 	rbit	r8, ip
 8000d52:	f04f 47e0 	mov.w	r7, #1879048192	; 0x70000000
 8000d56:	fab8 f888 	clz	r8, r8
 8000d5a:	f8d6 1084 	ldr.w	r1, [r6, #132]	; 0x84
 8000d5e:	fa97 fea7 	rbit	lr, r7
 8000d62:	f647 73c0 	movw	r3, #32704	; 0x7fc0
 8000d66:	fabe fe8e 	clz	lr, lr
 8000d6a:	fa93 f3a3 	rbit	r3, r3
 8000d6e:	fab3 fa83 	clz	sl, r3
 8000d72:	fa9c fcac 	rbit	ip, ip
 8000d76:	f04f 6970 	mov.w	r9, #251658240	; 0xf000000
 8000d7a:	fabc fc8c 	clz	ip, ip
 8000d7e:	fa99 f9a9 	rbit	r9, r9
 8000d82:	fab9 f989 	clz	r9, r9
 8000d86:	fa97 f7a7 	rbit	r7, r7
 8000d8a:	6863      	ldr	r3, [r4, #4]
 8000d8c:	f400 3040 	and.w	r0, r0, #196608	; 0x30000
 8000d90:	f001 41e0 	and.w	r1, r1, #1879048192	; 0x70000000
 8000d94:	fab7 f787 	clz	r7, r7
 8000d98:	fa03 fa0a 	lsl.w	sl, r3, sl
 8000d9c:	68e3      	ldr	r3, [r4, #12]
 8000d9e:	fa20 f008 	lsr.w	r0, r0, r8
 8000da2:	fa21 f10e 	lsr.w	r1, r1, lr
 8000da6:	fa03 f909 	lsl.w	r9, r3, r9
 8000daa:	fa00 f00c 	lsl.w	r0, r0, ip
 8000dae:	40b9      	lsls	r1, r7
 8000db0:	ea4a 0309 	orr.w	r3, sl, r9
 8000db4:	4303      	orrs	r3, r0
 8000db6:	430b      	orrs	r3, r1
 8000db8:	f8c6 3084 	str.w	r3, [r6, #132]	; 0x84
 8000dbc:	f8d6 108c 	ldr.w	r1, [r6, #140]	; 0x8c
 8000dc0:	6a63      	ldr	r3, [r4, #36]	; 0x24
 8000dc2:	f021 011f 	bic.w	r1, r1, #31
 8000dc6:	3b01      	subs	r3, #1
 8000dc8:	430b      	orrs	r3, r1
 8000dca:	f8c6 308c 	str.w	r3, [r6, #140]	; 0x8c
 8000dce:	01d1      	lsls	r1, r2, #7
 8000dd0:	d53b      	bpl.n	8000e4a <HAL_RCCEx_PeriphCLKConfig+0x696>
 8000dd2:	4e47      	ldr	r6, [pc, #284]	; (8000ef0 <HAL_RCCEx_PeriphCLKConfig+0x73c>)
 8000dd4:	f04f 6c70 	mov.w	ip, #251658240	; 0xf000000
 8000dd8:	f8d6 0084 	ldr.w	r0, [r6, #132]	; 0x84
 8000ddc:	fa9c f8ac 	rbit	r8, ip
 8000de0:	f04f 47e0 	mov.w	r7, #1879048192	; 0x70000000
 8000de4:	fab8 f888 	clz	r8, r8
 8000de8:	f8d6 1084 	ldr.w	r1, [r6, #132]	; 0x84
 8000dec:	fa97 fea7 	rbit	lr, r7
 8000df0:	f647 73c0 	movw	r3, #32704	; 0x7fc0
 8000df4:	fabe fe8e 	clz	lr, lr
 8000df8:	fa93 f3a3 	rbit	r3, r3
 8000dfc:	f44f 3940 	mov.w	r9, #196608	; 0x30000
 8000e00:	fab3 fa83 	clz	sl, r3
 8000e04:	fa99 f9a9 	rbit	r9, r9
 8000e08:	fab9 f989 	clz	r9, r9
 8000e0c:	fa9c fcac 	rbit	ip, ip
 8000e10:	fabc fc8c 	clz	ip, ip
 8000e14:	fa97 f7a7 	rbit	r7, r7
 8000e18:	6863      	ldr	r3, [r4, #4]
 8000e1a:	f000 6070 	and.w	r0, r0, #251658240	; 0xf000000
 8000e1e:	f001 41e0 	and.w	r1, r1, #1879048192	; 0x70000000
 8000e22:	fab7 f787 	clz	r7, r7
 8000e26:	fa03 fa0a 	lsl.w	sl, r3, sl
 8000e2a:	6923      	ldr	r3, [r4, #16]
 8000e2c:	fa20 f008 	lsr.w	r0, r0, r8
 8000e30:	fa21 f10e 	lsr.w	r1, r1, lr
 8000e34:	fa03 f909 	lsl.w	r9, r3, r9
 8000e38:	fa00 f00c 	lsl.w	r0, r0, ip
 8000e3c:	40b9      	lsls	r1, r7
 8000e3e:	ea4a 0309 	orr.w	r3, sl, r9
 8000e42:	4303      	orrs	r3, r0
 8000e44:	430b      	orrs	r3, r1
 8000e46:	f8c6 3084 	str.w	r3, [r6, #132]	; 0x84
 8000e4a:	0192      	lsls	r2, r2, #6
 8000e4c:	d528      	bpl.n	8000ea0 <HAL_RCCEx_PeriphCLKConfig+0x6ec>
 8000e4e:	f647 73c0 	movw	r3, #32704	; 0x7fc0
 8000e52:	fa93 f3a3 	rbit	r3, r3
 8000e56:	f44f 3040 	mov.w	r0, #196608	; 0x30000
 8000e5a:	fab3 f683 	clz	r6, r3
 8000e5e:	fa90 f0a0 	rbit	r0, r0
 8000e62:	f04f 6170 	mov.w	r1, #251658240	; 0xf000000
 8000e66:	fab0 f080 	clz	r0, r0
 8000e6a:	fa91 f1a1 	rbit	r1, r1
 8000e6e:	f04f 42e0 	mov.w	r2, #1879048192	; 0x70000000
 8000e72:	fab1 f181 	clz	r1, r1
 8000e76:	fa92 f2a2 	rbit	r2, r2
 8000e7a:	6863      	ldr	r3, [r4, #4]
 8000e7c:	fab2 f282 	clz	r2, r2
 8000e80:	40b3      	lsls	r3, r6
 8000e82:	6926      	ldr	r6, [r4, #16]
 8000e84:	fa06 f000 	lsl.w	r0, r6, r0
 8000e88:	4303      	orrs	r3, r0
 8000e8a:	68e0      	ldr	r0, [r4, #12]
 8000e8c:	fa00 f101 	lsl.w	r1, r0, r1
 8000e90:	430b      	orrs	r3, r1
 8000e92:	68a1      	ldr	r1, [r4, #8]
 8000e94:	fa01 f202 	lsl.w	r2, r1, r2
 8000e98:	4313      	orrs	r3, r2
 8000e9a:	4a15      	ldr	r2, [pc, #84]	; (8000ef0 <HAL_RCCEx_PeriphCLKConfig+0x73c>)
 8000e9c:	f8c2 3084 	str.w	r3, [r2, #132]	; 0x84
 8000ea0:	4e13      	ldr	r6, [pc, #76]	; (8000ef0 <HAL_RCCEx_PeriphCLKConfig+0x73c>)
 8000ea2:	6833      	ldr	r3, [r6, #0]
 8000ea4:	f043 6380 	orr.w	r3, r3, #67108864	; 0x4000000
 8000ea8:	6033      	str	r3, [r6, #0]
 8000eaa:	f7ff fc33 	bl	8000714 <HAL_GetTick>
 8000eae:	4607      	mov	r7, r0
 8000eb0:	6833      	ldr	r3, [r6, #0]
 8000eb2:	011b      	lsls	r3, r3, #4
 8000eb4:	f53f add4 	bmi.w	8000a60 <HAL_RCCEx_PeriphCLKConfig+0x2ac>
 8000eb8:	f7ff fc2c 	bl	8000714 <HAL_GetTick>
 8000ebc:	1bc0      	subs	r0, r0, r7
 8000ebe:	2864      	cmp	r0, #100	; 0x64
 8000ec0:	d9f6      	bls.n	8000eb0 <HAL_RCCEx_PeriphCLKConfig+0x6fc>
 8000ec2:	e6cc      	b.n	8000c5e <HAL_RCCEx_PeriphCLKConfig+0x4aa>
 8000ec4:	f7ff fc26 	bl	8000714 <HAL_GetTick>
 8000ec8:	1bc0      	subs	r0, r0, r7
 8000eca:	2864      	cmp	r0, #100	; 0x64
 8000ecc:	f67f aeea 	bls.w	8000ca4 <HAL_RCCEx_PeriphCLKConfig+0x4f0>
 8000ed0:	e6c5      	b.n	8000c5e <HAL_RCCEx_PeriphCLKConfig+0x4aa>
 8000ed2:	f7ff fc1f 	bl	8000714 <HAL_GetTick>
 8000ed6:	1b80      	subs	r0, r0, r6
 8000ed8:	2864      	cmp	r0, #100	; 0x64
 8000eda:	f67f adcc 	bls.w	8000a76 <HAL_RCCEx_PeriphCLKConfig+0x2c2>
 8000ede:	e6be      	b.n	8000c5e <HAL_RCCEx_PeriphCLKConfig+0x4aa>
 8000ee0:	f7ff fc18 	bl	8000714 <HAL_GetTick>
 8000ee4:	1b40      	subs	r0, r0, r5
 8000ee6:	2864      	cmp	r0, #100	; 0x64
 8000ee8:	f67f aeaa 	bls.w	8000c40 <HAL_RCCEx_PeriphCLKConfig+0x48c>
 8000eec:	e6b7      	b.n	8000c5e <HAL_RCCEx_PeriphCLKConfig+0x4aa>
 8000eee:	bf00      	nop
 8000ef0:	40023800 	andmi	r3, r2, r0, lsl #16

08000ef4 <HAL_UART_MspInit>:
 8000ef4:	4770      	bx	lr

08000ef6 <UART_WaitOnFlagUntilTimeout>:
 8000ef6:	e92d 41f0 	stmdb	sp!, {r4, r5, r6, r7, r8, lr}
 8000efa:	4690      	mov	r8, r2
 8000efc:	4604      	mov	r4, r0
 8000efe:	460e      	mov	r6, r1
 8000f00:	461d      	mov	r5, r3
 8000f02:	f7ff fc07 	bl	8000714 <HAL_GetTick>
 8000f06:	4607      	mov	r7, r0
 8000f08:	f1b8 0f00 	cmp.w	r8, #0
 8000f0c:	d02f      	beq.n	8000f6e <UART_WaitOnFlagUntilTimeout+0x78>
 8000f0e:	6822      	ldr	r2, [r4, #0]
 8000f10:	69d3      	ldr	r3, [r2, #28]
 8000f12:	ea36 0303 	bics.w	r3, r6, r3
 8000f16:	d12f      	bne.n	8000f78 <UART_WaitOnFlagUntilTimeout+0x82>
 8000f18:	1c6b      	adds	r3, r5, #1
 8000f1a:	d0f9      	beq.n	8000f10 <UART_WaitOnFlagUntilTimeout+0x1a>
 8000f1c:	b145      	cbz	r5, 8000f30 <UART_WaitOnFlagUntilTimeout+0x3a>
 8000f1e:	f7ff fbf9 	bl	8000714 <HAL_GetTick>
 8000f22:	1bc0      	subs	r0, r0, r7
 8000f24:	4285      	cmp	r5, r0
 8000f26:	d8f2      	bhi.n	8000f0e <UART_WaitOnFlagUntilTimeout+0x18>
 8000f28:	e002      	b.n	8000f30 <UART_WaitOnFlagUntilTimeout+0x3a>
 8000f2a:	1c69      	adds	r1, r5, #1
 8000f2c:	d020      	beq.n	8000f70 <UART_WaitOnFlagUntilTimeout+0x7a>
 8000f2e:	b9cd      	cbnz	r5, 8000f64 <UART_WaitOnFlagUntilTimeout+0x6e>
 8000f30:	6823      	ldr	r3, [r4, #0]
 8000f32:	2003      	movs	r0, #3
 8000f34:	681a      	ldr	r2, [r3, #0]
 8000f36:	f022 0280 	bic.w	r2, r2, #128	; 0x80
 8000f3a:	601a      	str	r2, [r3, #0]
 8000f3c:	681a      	ldr	r2, [r3, #0]
 8000f3e:	f022 0220 	bic.w	r2, r2, #32
 8000f42:	601a      	str	r2, [r3, #0]
 8000f44:	681a      	ldr	r2, [r3, #0]
 8000f46:	f422 7280 	bic.w	r2, r2, #256	; 0x100
 8000f4a:	601a      	str	r2, [r3, #0]
 8000f4c:	689a      	ldr	r2, [r3, #8]
 8000f4e:	f022 0201 	bic.w	r2, r2, #1
 8000f52:	609a      	str	r2, [r3, #8]
 8000f54:	2301      	movs	r3, #1
 8000f56:	f884 3069 	strb.w	r3, [r4, #105]	; 0x69
 8000f5a:	2300      	movs	r3, #0
 8000f5c:	f884 3068 	strb.w	r3, [r4, #104]	; 0x68
 8000f60:	e8bd 81f0 	ldmia.w	sp!, {r4, r5, r6, r7, r8, pc}
 8000f64:	f7ff fbd6 	bl	8000714 <HAL_GetTick>
 8000f68:	1bc0      	subs	r0, r0, r7
 8000f6a:	4285      	cmp	r5, r0
 8000f6c:	d9e0      	bls.n	8000f30 <UART_WaitOnFlagUntilTimeout+0x3a>
 8000f6e:	6822      	ldr	r2, [r4, #0]
 8000f70:	69d3      	ldr	r3, [r2, #28]
 8000f72:	ea36 0303 	bics.w	r3, r6, r3
 8000f76:	d1d8      	bne.n	8000f2a <UART_WaitOnFlagUntilTimeout+0x34>
 8000f78:	2000      	movs	r0, #0
 8000f7a:	e8bd 81f0 	ldmia.w	sp!, {r4, r5, r6, r7, r8, pc}
 8000f7e:	0000      	movs	r0, r0

08000f80 <UART_SetConfig>:
 8000f80:	b538      	push	{r3, r4, r5, lr}
 8000f82:	4604      	mov	r4, r0
 8000f84:	6805      	ldr	r5, [r0, #0]
 8000f86:	69c3      	ldr	r3, [r0, #28]
 8000f88:	6921      	ldr	r1, [r4, #16]
 8000f8a:	68a2      	ldr	r2, [r4, #8]
 8000f8c:	6828      	ldr	r0, [r5, #0]
 8000f8e:	430a      	orrs	r2, r1
 8000f90:	6961      	ldr	r1, [r4, #20]
 8000f92:	430a      	orrs	r2, r1
 8000f94:	498c      	ldr	r1, [pc, #560]	; (80011c8 <UART_SetConfig+0x248>)
 8000f96:	431a      	orrs	r2, r3
 8000f98:	4001      	ands	r1, r0
 8000f9a:	6a20      	ldr	r0, [r4, #32]
 8000f9c:	430a      	orrs	r2, r1
 8000f9e:	68e1      	ldr	r1, [r4, #12]
 8000fa0:	602a      	str	r2, [r5, #0]
 8000fa2:	686a      	ldr	r2, [r5, #4]
 8000fa4:	f422 5240 	bic.w	r2, r2, #12288	; 0x3000
 8000fa8:	430a      	orrs	r2, r1
 8000faa:	606a      	str	r2, [r5, #4]
 8000fac:	69a2      	ldr	r2, [r4, #24]
 8000fae:	68a9      	ldr	r1, [r5, #8]
 8000fb0:	4302      	orrs	r2, r0
 8000fb2:	f421 6130 	bic.w	r1, r1, #2816	; 0xb00
 8000fb6:	430a      	orrs	r2, r1
 8000fb8:	60aa      	str	r2, [r5, #8]
 8000fba:	4a84      	ldr	r2, [pc, #528]	; (80011cc <UART_SetConfig+0x24c>)
 8000fbc:	4295      	cmp	r5, r2
 8000fbe:	d119      	bne.n	8000ff4 <UART_SetConfig+0x74>
 8000fc0:	f502 3294 	add.w	r2, r2, #75776	; 0x12800
 8000fc4:	4982      	ldr	r1, [pc, #520]	; (80011d0 <UART_SetConfig+0x250>)
 8000fc6:	f8d2 2090 	ldr.w	r2, [r2, #144]	; 0x90
 8000fca:	f002 0203 	and.w	r2, r2, #3
 8000fce:	f5b3 4f00 	cmp.w	r3, #32768	; 0x8000
 8000fd2:	5c8a      	ldrb	r2, [r1, r2]
 8000fd4:	f040 80b1 	bne.w	800113a <UART_SetConfig+0x1ba>
 8000fd8:	2a08      	cmp	r2, #8
 8000fda:	f200 80ab 	bhi.w	8001134 <UART_SetConfig+0x1b4>
 8000fde:	e8df f012 	tbh	[pc, r2, lsl #1]
 8000fe2:	00790026 	rsbseq	r0, r9, r6, lsr #32
 8000fe6:	00a900e2 	adceq	r0, r9, r2, ror #1
 8000fea:	00a900e8 	adceq	r0, r9, r8, ror #1
 8000fee:	00a900a9 	adceq	r0, r9, r9, lsr #1
 8000ff2:	4a7700ee 	bmi	9dc13b2 <_sidata+0x1d9d82e>
 8000ff6:	4295      	cmp	r5, r2
 8000ff8:	d107      	bne.n	800100a <UART_SetConfig+0x8a>
 8000ffa:	f502 32fa 	add.w	r2, r2, #128000	; 0x1f400
 8000ffe:	4976      	ldr	r1, [pc, #472]	; (80011d8 <UART_SetConfig+0x258>)
 8001000:	f8d2 2090 	ldr.w	r2, [r2, #144]	; 0x90
 8001004:	f002 020c 	and.w	r2, r2, #12
 8001008:	e7e1      	b.n	8000fce <UART_SetConfig+0x4e>
 800100a:	4a74      	ldr	r2, [pc, #464]	; (80011dc <UART_SetConfig+0x25c>)
 800100c:	4295      	cmp	r5, r2
 800100e:	d129      	bne.n	8001064 <UART_SetConfig+0xe4>
 8001010:	f502 32f8 	add.w	r2, r2, #126976	; 0x1f000
 8001014:	f8d2 2090 	ldr.w	r2, [r2, #144]	; 0x90
 8001018:	f002 0230 	and.w	r2, r2, #48	; 0x30
 800101c:	2a10      	cmp	r2, #16
 800101e:	f000 80c5 	beq.w	80011ac <UART_SetConfig+0x22c>
 8001022:	d814      	bhi.n	800104e <UART_SetConfig+0xce>
 8001024:	b9ca      	cbnz	r2, 800105a <UART_SetConfig+0xda>
 8001026:	f5b3 4f00 	cmp.w	r3, #32768	; 0x8000
 800102a:	f040 809d 	bne.w	8001168 <UART_SetConfig+0x1e8>
 800102e:	f000 fd3b 	bl	8001aa8 <HAL_RCC_GetPCLK1Freq>
 8001032:	0043      	lsls	r3, r0, #1
 8001034:	6860      	ldr	r0, [r4, #4]
 8001036:	fbb3 f3f0 	udiv	r3, r3, r0
 800103a:	2000      	movs	r0, #0
 800103c:	b29b      	uxth	r3, r3
 800103e:	f023 020f 	bic.w	r2, r3, #15
 8001042:	f3c3 0342 	ubfx	r3, r3, #1, #3
 8001046:	6821      	ldr	r1, [r4, #0]
 8001048:	4313      	orrs	r3, r2
 800104a:	60cb      	str	r3, [r1, #12]
 800104c:	bd38      	pop	{r3, r4, r5, pc}
 800104e:	2a20      	cmp	r2, #32
 8001050:	f000 80a6 	beq.w	80011a0 <UART_SetConfig+0x220>
 8001054:	2a30      	cmp	r2, #48	; 0x30
 8001056:	f000 80af 	beq.w	80011b8 <UART_SetConfig+0x238>
 800105a:	f5b3 4f00 	cmp.w	r3, #32768	; 0x8000
 800105e:	d069      	beq.n	8001134 <UART_SetConfig+0x1b4>
 8001060:	2001      	movs	r0, #1
 8001062:	bd38      	pop	{r3, r4, r5, pc}
 8001064:	4a5e      	ldr	r2, [pc, #376]	; (80011e0 <UART_SetConfig+0x260>)
 8001066:	4295      	cmp	r5, r2
 8001068:	d10e      	bne.n	8001088 <UART_SetConfig+0x108>
 800106a:	f502 32f6 	add.w	r2, r2, #125952	; 0x1ec00
 800106e:	f8d2 2090 	ldr.w	r2, [r2, #144]	; 0x90
 8001072:	f002 02c0 	and.w	r2, r2, #192	; 0xc0
 8001076:	2a40      	cmp	r2, #64	; 0x40
 8001078:	f000 8098 	beq.w	80011ac <UART_SetConfig+0x22c>
 800107c:	d9d2      	bls.n	8001024 <UART_SetConfig+0xa4>
 800107e:	2a80      	cmp	r2, #128	; 0x80
 8001080:	f000 808e 	beq.w	80011a0 <UART_SetConfig+0x220>
 8001084:	2ac0      	cmp	r2, #192	; 0xc0
 8001086:	e7e6      	b.n	8001056 <UART_SetConfig+0xd6>
 8001088:	4a56      	ldr	r2, [pc, #344]	; (80011e4 <UART_SetConfig+0x264>)
 800108a:	4295      	cmp	r5, r2
 800108c:	d110      	bne.n	80010b0 <UART_SetConfig+0x130>
 800108e:	f502 32f4 	add.w	r2, r2, #124928	; 0x1e800
 8001092:	f8d2 2090 	ldr.w	r2, [r2, #144]	; 0x90
 8001096:	f402 7240 	and.w	r2, r2, #768	; 0x300
 800109a:	f5b2 7f80 	cmp.w	r2, #256	; 0x100
 800109e:	f000 8085 	beq.w	80011ac <UART_SetConfig+0x22c>
 80010a2:	d9bf      	bls.n	8001024 <UART_SetConfig+0xa4>
 80010a4:	f5b2 7f00 	cmp.w	r2, #512	; 0x200
 80010a8:	d07a      	beq.n	80011a0 <UART_SetConfig+0x220>
 80010aa:	f5b2 7f40 	cmp.w	r2, #768	; 0x300
 80010ae:	e7d2      	b.n	8001056 <UART_SetConfig+0xd6>
 80010b0:	4a4d      	ldr	r2, [pc, #308]	; (80011e8 <UART_SetConfig+0x268>)
 80010b2:	4295      	cmp	r5, r2
 80010b4:	d117      	bne.n	80010e6 <UART_SetConfig+0x166>
 80010b6:	f502 3292 	add.w	r2, r2, #74752	; 0x12400
 80010ba:	f8d2 2090 	ldr.w	r2, [r2, #144]	; 0x90
 80010be:	f402 6240 	and.w	r2, r2, #3072	; 0xc00
 80010c2:	f5b2 6f80 	cmp.w	r2, #1024	; 0x400
 80010c6:	d071      	beq.n	80011ac <UART_SetConfig+0x22c>
 80010c8:	d807      	bhi.n	80010da <UART_SetConfig+0x15a>
 80010ca:	2a00      	cmp	r2, #0
 80010cc:	d1c5      	bne.n	800105a <UART_SetConfig+0xda>
 80010ce:	f5b3 4f00 	cmp.w	r3, #32768	; 0x8000
 80010d2:	d152      	bne.n	800117a <UART_SetConfig+0x1fa>
 80010d4:	f000 fcfe 	bl	8001ad4 <HAL_RCC_GetPCLK2Freq>
 80010d8:	e7ab      	b.n	8001032 <UART_SetConfig+0xb2>
 80010da:	f5b2 6f00 	cmp.w	r2, #2048	; 0x800
 80010de:	d05f      	beq.n	80011a0 <UART_SetConfig+0x220>
 80010e0:	f5b2 6f40 	cmp.w	r2, #3072	; 0xc00
 80010e4:	e7b7      	b.n	8001056 <UART_SetConfig+0xd6>
 80010e6:	4a41      	ldr	r2, [pc, #260]	; (80011ec <UART_SetConfig+0x26c>)
 80010e8:	4295      	cmp	r5, r2
 80010ea:	d10f      	bne.n	800110c <UART_SetConfig+0x18c>
 80010ec:	f502 32e0 	add.w	r2, r2, #114688	; 0x1c000
 80010f0:	f8d2 2090 	ldr.w	r2, [r2, #144]	; 0x90
 80010f4:	f402 5240 	and.w	r2, r2, #12288	; 0x3000
 80010f8:	f5b2 5f80 	cmp.w	r2, #4096	; 0x1000
 80010fc:	d056      	beq.n	80011ac <UART_SetConfig+0x22c>
 80010fe:	d991      	bls.n	8001024 <UART_SetConfig+0xa4>
 8001100:	f5b2 5f00 	cmp.w	r2, #8192	; 0x2000
 8001104:	d04c      	beq.n	80011a0 <UART_SetConfig+0x220>
 8001106:	f5b2 5f40 	cmp.w	r2, #12288	; 0x3000
 800110a:	e7a4      	b.n	8001056 <UART_SetConfig+0xd6>
 800110c:	4a38      	ldr	r2, [pc, #224]	; (80011f0 <UART_SetConfig+0x270>)
 800110e:	4295      	cmp	r5, r2
 8001110:	d1a3      	bne.n	800105a <UART_SetConfig+0xda>
 8001112:	f502 32de 	add.w	r2, r2, #113664	; 0x1bc00
 8001116:	f8d2 2090 	ldr.w	r2, [r2, #144]	; 0x90
 800111a:	f402 4240 	and.w	r2, r2, #49152	; 0xc000
 800111e:	f5b2 4f80 	cmp.w	r2, #16384	; 0x4000
 8001122:	d043      	beq.n	80011ac <UART_SetConfig+0x22c>
 8001124:	f67f af7e 	bls.w	8001024 <UART_SetConfig+0xa4>
 8001128:	f5b2 4f00 	cmp.w	r2, #32768	; 0x8000
 800112c:	d038      	beq.n	80011a0 <UART_SetConfig+0x220>
 800112e:	f5b2 4f40 	cmp.w	r2, #49152	; 0xc000
 8001132:	e790      	b.n	8001056 <UART_SetConfig+0xd6>
 8001134:	2001      	movs	r0, #1
 8001136:	2300      	movs	r3, #0
 8001138:	e781      	b.n	800103e <UART_SetConfig+0xbe>
 800113a:	2a08      	cmp	r2, #8
 800113c:	d890      	bhi.n	8001060 <UART_SetConfig+0xe0>
 800113e:	a301      	add	r3, pc, #4	; (adr r3, 8001144 <UART_SetConfig+0x1c4>)
 8001140:	f853 f022 	ldr.w	pc, [r3, r2, lsl #2]
 8001144:	08001169 	stmdaeq	r0, {r0, r3, r5, r6, r8, ip}
 8001148:	0800117b 	stmdaeq	r0, {r0, r1, r3, r4, r5, r6, r8, ip}
 800114c:	08001181 	stmdaeq	r0, {r0, r7, r8, ip}
 8001150:	08001061 	stmdaeq	r0, {r0, r5, r6, ip}
 8001154:	0800118f 	stmdaeq	r0, {r0, r1, r2, r3, r7, r8, ip}
 8001158:	08001061 	stmdaeq	r0, {r0, r5, r6, ip}
 800115c:	08001061 	stmdaeq	r0, {r0, r5, r6, ip}
 8001160:	08001061 	stmdaeq	r0, {r0, r5, r6, ip}
 8001164:	08001195 	stmdaeq	r0, {r0, r2, r4, r7, r8, ip}
 8001168:	f000 fc9e 	bl	8001aa8 <HAL_RCC_GetPCLK1Freq>
 800116c:	6863      	ldr	r3, [r4, #4]
 800116e:	fbb0 f0f3 	udiv	r0, r0, r3
 8001172:	b280      	uxth	r0, r0
 8001174:	60e8      	str	r0, [r5, #12]
 8001176:	2000      	movs	r0, #0
 8001178:	bd38      	pop	{r3, r4, r5, pc}
 800117a:	f000 fcab 	bl	8001ad4 <HAL_RCC_GetPCLK2Freq>
 800117e:	e7f5      	b.n	800116c <UART_SetConfig+0x1ec>
 8001180:	6862      	ldr	r2, [r4, #4]
 8001182:	4b1c      	ldr	r3, [pc, #112]	; (80011f4 <UART_SetConfig+0x274>)
 8001184:	fbb3 f3f2 	udiv	r3, r3, r2
 8001188:	b29b      	uxth	r3, r3
 800118a:	60eb      	str	r3, [r5, #12]
 800118c:	e7f3      	b.n	8001176 <UART_SetConfig+0x1f6>
 800118e:	f000 fc37 	bl	8001a00 <HAL_RCC_GetSysClockFreq>
 8001192:	e7eb      	b.n	800116c <UART_SetConfig+0x1ec>
 8001194:	6862      	ldr	r2, [r4, #4]
 8001196:	f44f 4300 	mov.w	r3, #32768	; 0x8000
 800119a:	fbb3 f3f2 	udiv	r3, r3, r2
 800119e:	e7f4      	b.n	800118a <UART_SetConfig+0x20a>
 80011a0:	f5b3 4f00 	cmp.w	r3, #32768	; 0x8000
 80011a4:	d1ec      	bne.n	8001180 <UART_SetConfig+0x200>
 80011a6:	6860      	ldr	r0, [r4, #4]
 80011a8:	4b13      	ldr	r3, [pc, #76]	; (80011f8 <UART_SetConfig+0x278>)
 80011aa:	e744      	b.n	8001036 <UART_SetConfig+0xb6>
 80011ac:	f5b3 4f00 	cmp.w	r3, #32768	; 0x8000
 80011b0:	d1ed      	bne.n	800118e <UART_SetConfig+0x20e>
 80011b2:	f000 fc25 	bl	8001a00 <HAL_RCC_GetSysClockFreq>
 80011b6:	e73c      	b.n	8001032 <UART_SetConfig+0xb2>
 80011b8:	f5b3 4f00 	cmp.w	r3, #32768	; 0x8000
 80011bc:	d1ea      	bne.n	8001194 <UART_SetConfig+0x214>
 80011be:	6860      	ldr	r0, [r4, #4]
 80011c0:	f44f 3380 	mov.w	r3, #65536	; 0x10000
 80011c4:	e737      	b.n	8001036 <UART_SetConfig+0xb6>
 80011c6:	bf00      	nop
 80011c8:	efff69f3 	svc	0x00ff69f3
 80011cc:	40011000 	andmi	r1, r1, r0
 80011d0:	080048c8 	stmdaeq	r0, {r3, r6, r7, fp, lr}
 80011d4:	40004400 	andmi	r4, r0, r0, lsl #8
 80011d8:	080048cc 	stmdaeq	r0, {r2, r3, r6, r7, fp, lr}
 80011dc:	40004800 	andmi	r4, r0, r0, lsl #16
 80011e0:	40004c00 	andmi	r4, r0, r0, lsl #24
 80011e4:	40005000 	andmi	r5, r0, r0
 80011e8:	40011400 	andmi	r1, r1, r0, lsl #8
 80011ec:	40007800 	andmi	r7, r0, r0, lsl #16
 80011f0:	40007c00 	andmi	r7, r0, r0, lsl #24
 80011f4:	00f42400 	rscseq	r2, r4, r0, lsl #8
 80011f8:	01e84800 	mvneq	r4, r0, lsl #16

080011fc <UART_AdvFeatureConfig>:
 80011fc:	6a43      	ldr	r3, [r0, #36]	; 0x24
 80011fe:	07da      	lsls	r2, r3, #31
 8001200:	b510      	push	{r4, lr}
 8001202:	d506      	bpl.n	8001212 <UART_AdvFeatureConfig+0x16>
 8001204:	6801      	ldr	r1, [r0, #0]
 8001206:	6a84      	ldr	r4, [r0, #40]	; 0x28
 8001208:	684a      	ldr	r2, [r1, #4]
 800120a:	f422 3200 	bic.w	r2, r2, #131072	; 0x20000
 800120e:	4322      	orrs	r2, r4
 8001210:	604a      	str	r2, [r1, #4]
 8001212:	079c      	lsls	r4, r3, #30
 8001214:	d506      	bpl.n	8001224 <UART_AdvFeatureConfig+0x28>
 8001216:	6801      	ldr	r1, [r0, #0]
 8001218:	6ac4      	ldr	r4, [r0, #44]	; 0x2c
 800121a:	684a      	ldr	r2, [r1, #4]
 800121c:	f422 3280 	bic.w	r2, r2, #65536	; 0x10000
 8001220:	4322      	orrs	r2, r4
 8001222:	604a      	str	r2, [r1, #4]
 8001224:	0759      	lsls	r1, r3, #29
 8001226:	d506      	bpl.n	8001236 <UART_AdvFeatureConfig+0x3a>
 8001228:	6801      	ldr	r1, [r0, #0]
 800122a:	6b04      	ldr	r4, [r0, #48]	; 0x30
 800122c:	684a      	ldr	r2, [r1, #4]
 800122e:	f422 2280 	bic.w	r2, r2, #262144	; 0x40000
 8001232:	4322      	orrs	r2, r4
 8001234:	604a      	str	r2, [r1, #4]
 8001236:	071a      	lsls	r2, r3, #28
 8001238:	d506      	bpl.n	8001248 <UART_AdvFeatureConfig+0x4c>
 800123a:	6801      	ldr	r1, [r0, #0]
 800123c:	6b44      	ldr	r4, [r0, #52]	; 0x34
 800123e:	684a      	ldr	r2, [r1, #4]
 8001240:	f422 4200 	bic.w	r2, r2, #32768	; 0x8000
 8001244:	4322      	orrs	r2, r4
 8001246:	604a      	str	r2, [r1, #4]
 8001248:	06dc      	lsls	r4, r3, #27
 800124a:	d506      	bpl.n	800125a <UART_AdvFeatureConfig+0x5e>
 800124c:	6801      	ldr	r1, [r0, #0]
 800124e:	6b84      	ldr	r4, [r0, #56]	; 0x38
 8001250:	688a      	ldr	r2, [r1, #8]
 8001252:	f422 5280 	bic.w	r2, r2, #4096	; 0x1000
 8001256:	4322      	orrs	r2, r4
 8001258:	608a      	str	r2, [r1, #8]
 800125a:	0699      	lsls	r1, r3, #26
 800125c:	d506      	bpl.n	800126c <UART_AdvFeatureConfig+0x70>
 800125e:	6801      	ldr	r1, [r0, #0]
 8001260:	6bc4      	ldr	r4, [r0, #60]	; 0x3c
 8001262:	688a      	ldr	r2, [r1, #8]
 8001264:	f422 5200 	bic.w	r2, r2, #8192	; 0x2000
 8001268:	4322      	orrs	r2, r4
 800126a:	608a      	str	r2, [r1, #8]
 800126c:	065a      	lsls	r2, r3, #25
 800126e:	d510      	bpl.n	8001292 <UART_AdvFeatureConfig+0x96>
 8001270:	6801      	ldr	r1, [r0, #0]
 8001272:	6c04      	ldr	r4, [r0, #64]	; 0x40
 8001274:	684a      	ldr	r2, [r1, #4]
 8001276:	f5b4 1f80 	cmp.w	r4, #1048576	; 0x100000
 800127a:	f422 1280 	bic.w	r2, r2, #1048576	; 0x100000
 800127e:	ea42 0204 	orr.w	r2, r2, r4
 8001282:	604a      	str	r2, [r1, #4]
 8001284:	d105      	bne.n	8001292 <UART_AdvFeatureConfig+0x96>
 8001286:	684a      	ldr	r2, [r1, #4]
 8001288:	6c44      	ldr	r4, [r0, #68]	; 0x44
 800128a:	f422 02c0 	bic.w	r2, r2, #6291456	; 0x600000
 800128e:	4322      	orrs	r2, r4
 8001290:	604a      	str	r2, [r1, #4]
 8001292:	061b      	lsls	r3, r3, #24
 8001294:	d506      	bpl.n	80012a4 <UART_AdvFeatureConfig+0xa8>
 8001296:	6802      	ldr	r2, [r0, #0]
 8001298:	6c81      	ldr	r1, [r0, #72]	; 0x48
 800129a:	6853      	ldr	r3, [r2, #4]
 800129c:	f423 2300 	bic.w	r3, r3, #524288	; 0x80000
 80012a0:	430b      	orrs	r3, r1
 80012a2:	6053      	str	r3, [r2, #4]
 80012a4:	bd10      	pop	{r4, pc}

080012a6 <UART_CheckIdleState>:
 80012a6:	2200      	movs	r2, #0
 80012a8:	6803      	ldr	r3, [r0, #0]
 80012aa:	b510      	push	{r4, lr}
 80012ac:	66c2      	str	r2, [r0, #108]	; 0x6c
 80012ae:	4604      	mov	r4, r0
 80012b0:	681b      	ldr	r3, [r3, #0]
 80012b2:	0719      	lsls	r1, r3, #28
 80012b4:	d413      	bmi.n	80012de <UART_CheckIdleState+0x38>
 80012b6:	6823      	ldr	r3, [r4, #0]
 80012b8:	681b      	ldr	r3, [r3, #0]
 80012ba:	075b      	lsls	r3, r3, #29
 80012bc:	d508      	bpl.n	80012d0 <UART_CheckIdleState+0x2a>
 80012be:	f06f 437e 	mvn.w	r3, #4261412864	; 0xfe000000
 80012c2:	2200      	movs	r2, #0
 80012c4:	f44f 0180 	mov.w	r1, #4194304	; 0x400000
 80012c8:	4620      	mov	r0, r4
 80012ca:	f7ff fe14 	bl	8000ef6 <UART_WaitOnFlagUntilTimeout>
 80012ce:	b970      	cbnz	r0, 80012ee <UART_CheckIdleState+0x48>
 80012d0:	2301      	movs	r3, #1
 80012d2:	2000      	movs	r0, #0
 80012d4:	f884 3069 	strb.w	r3, [r4, #105]	; 0x69
 80012d8:	f884 0068 	strb.w	r0, [r4, #104]	; 0x68
 80012dc:	bd10      	pop	{r4, pc}
 80012de:	f06f 437e 	mvn.w	r3, #4261412864	; 0xfe000000
 80012e2:	f44f 1100 	mov.w	r1, #2097152	; 0x200000
 80012e6:	f7ff fe06 	bl	8000ef6 <UART_WaitOnFlagUntilTimeout>
 80012ea:	2800      	cmp	r0, #0
 80012ec:	d0e3      	beq.n	80012b6 <UART_CheckIdleState+0x10>
 80012ee:	2003      	movs	r0, #3
 80012f0:	bd10      	pop	{r4, pc}

080012f2 <HAL_UART_Init>:
 80012f2:	b510      	push	{r4, lr}
 80012f4:	4604      	mov	r4, r0
 80012f6:	b360      	cbz	r0, 8001352 <HAL_UART_Init+0x60>
 80012f8:	f890 3069 	ldrb.w	r3, [r0, #105]	; 0x69
 80012fc:	f003 02ff 	and.w	r2, r3, #255	; 0xff
 8001300:	b91b      	cbnz	r3, 800130a <HAL_UART_Init+0x18>
 8001302:	f880 2068 	strb.w	r2, [r0, #104]	; 0x68
 8001306:	f7ff fdf5 	bl	8000ef4 <HAL_UART_MspInit>
 800130a:	6822      	ldr	r2, [r4, #0]
 800130c:	2302      	movs	r3, #2
 800130e:	4620      	mov	r0, r4
 8001310:	f884 3069 	strb.w	r3, [r4, #105]	; 0x69
 8001314:	6813      	ldr	r3, [r2, #0]
 8001316:	f023 0301 	bic.w	r3, r3, #1
 800131a:	6013      	str	r3, [r2, #0]
 800131c:	f7ff fe30 	bl	8000f80 <UART_SetConfig>
 8001320:	2801      	cmp	r0, #1
 8001322:	d016      	beq.n	8001352 <HAL_UART_Init+0x60>
 8001324:	6a63      	ldr	r3, [r4, #36]	; 0x24
 8001326:	b113      	cbz	r3, 800132e <HAL_UART_Init+0x3c>
 8001328:	4620      	mov	r0, r4
 800132a:	f7ff ff67 	bl	80011fc <UART_AdvFeatureConfig>
 800132e:	6823      	ldr	r3, [r4, #0]
 8001330:	4620      	mov	r0, r4
 8001332:	685a      	ldr	r2, [r3, #4]
 8001334:	f422 4290 	bic.w	r2, r2, #18432	; 0x4800
 8001338:	605a      	str	r2, [r3, #4]
 800133a:	689a      	ldr	r2, [r3, #8]
 800133c:	f022 022a 	bic.w	r2, r2, #42	; 0x2a
 8001340:	609a      	str	r2, [r3, #8]
 8001342:	681a      	ldr	r2, [r3, #0]
 8001344:	f042 0201 	orr.w	r2, r2, #1
 8001348:	e8bd 4010 	ldmia.w	sp!, {r4, lr}
 800134c:	601a      	str	r2, [r3, #0]
 800134e:	f7ff bfaa 	b.w	80012a6 <UART_CheckIdleState>
 8001352:	2001      	movs	r0, #1
 8001354:	bd10      	pop	{r4, pc}
 8001356:	0000      	movs	r0, r0

08001358 <HAL_NVIC_SetPriorityGrouping>:
 8001358:	4a07      	ldr	r2, [pc, #28]	; (8001378 <HAL_NVIC_SetPriorityGrouping+0x20>)
 800135a:	0200      	lsls	r0, r0, #8
 800135c:	68d3      	ldr	r3, [r2, #12]
 800135e:	f400 60e0 	and.w	r0, r0, #1792	; 0x700
 8001362:	f423 63e0 	bic.w	r3, r3, #1792	; 0x700
 8001366:	041b      	lsls	r3, r3, #16
 8001368:	0c1b      	lsrs	r3, r3, #16
 800136a:	f043 63bf 	orr.w	r3, r3, #100139008	; 0x5f80000
 800136e:	f443 3300 	orr.w	r3, r3, #131072	; 0x20000
 8001372:	4303      	orrs	r3, r0
 8001374:	60d3      	str	r3, [r2, #12]
 8001376:	4770      	bx	lr
 8001378:	e000ed00 	and	lr, r0, r0, lsl #26

0800137c <HAL_NVIC_SetPriority>:
 800137c:	4b19      	ldr	r3, [pc, #100]	; (80013e4 <HAL_NVIC_SetPriority+0x68>)
 800137e:	b530      	push	{r4, r5, lr}
 8001380:	68dc      	ldr	r4, [r3, #12]
 8001382:	f3c4 2402 	ubfx	r4, r4, #8, #3
 8001386:	f1c4 0307 	rsb	r3, r4, #7
 800138a:	1d25      	adds	r5, r4, #4
 800138c:	2b04      	cmp	r3, #4
 800138e:	bf28      	it	cs
 8001390:	2304      	movcs	r3, #4
 8001392:	2d06      	cmp	r5, #6
 8001394:	f04f 0501 	mov.w	r5, #1
 8001398:	bf8c      	ite	hi
 800139a:	3c03      	subhi	r4, #3
 800139c:	2400      	movls	r4, #0
 800139e:	fa05 f303 	lsl.w	r3, r5, r3
 80013a2:	2800      	cmp	r0, #0
 80013a4:	f103 33ff 	add.w	r3, r3, #4294967295	; 0xffffffff
 80013a8:	ea01 0103 	and.w	r1, r1, r3
 80013ac:	fa01 f104 	lsl.w	r1, r1, r4
 80013b0:	fa05 f404 	lsl.w	r4, r5, r4
 80013b4:	f104 34ff 	add.w	r4, r4, #4294967295	; 0xffffffff
 80013b8:	ea02 0204 	and.w	r2, r2, r4
 80013bc:	ea42 0201 	orr.w	r2, r2, r1
 80013c0:	ea4f 1202 	mov.w	r2, r2, lsl #4
 80013c4:	da05      	bge.n	80013d2 <HAL_NVIC_SetPriority+0x56>
 80013c6:	f000 000f 	and.w	r0, r0, #15
 80013ca:	b2d2      	uxtb	r2, r2
 80013cc:	4b06      	ldr	r3, [pc, #24]	; (80013e8 <HAL_NVIC_SetPriority+0x6c>)
 80013ce:	541a      	strb	r2, [r3, r0]
 80013d0:	bd30      	pop	{r4, r5, pc}
 80013d2:	f100 4060 	add.w	r0, r0, #3758096384	; 0xe0000000
 80013d6:	b2d2      	uxtb	r2, r2
 80013d8:	f500 4061 	add.w	r0, r0, #57600	; 0xe100
 80013dc:	f880 2300 	strb.w	r2, [r0, #768]	; 0x300
 80013e0:	bd30      	pop	{r4, r5, pc}
 80013e2:	bf00      	nop
 80013e4:	e000ed00 	and	lr, r0, r0, lsl #26
 80013e8:	e000ed14 	and	lr, r0, r4, lsl sp

080013ec <HAL_NVIC_EnableIRQ>:
 80013ec:	0942      	lsrs	r2, r0, #5
 80013ee:	2301      	movs	r3, #1
 80013f0:	f000 001f 	and.w	r0, r0, #31
 80013f4:	fa03 f000 	lsl.w	r0, r3, r0
 80013f8:	4b01      	ldr	r3, [pc, #4]	; (8001400 <HAL_NVIC_EnableIRQ+0x14>)
 80013fa:	f843 0022 	str.w	r0, [r3, r2, lsl #2]
 80013fe:	4770      	bx	lr
 8001400:	e000e100 	and	lr, r0, r0, lsl #2

08001404 <HAL_SYSTICK_Config>:
 8001404:	3801      	subs	r0, #1
 8001406:	f1b0 7f80 	cmp.w	r0, #16777216	; 0x1000000
 800140a:	d20a      	bcs.n	8001422 <HAL_SYSTICK_Config+0x1e>
 800140c:	4b06      	ldr	r3, [pc, #24]	; (8001428 <HAL_SYSTICK_Config+0x24>)
 800140e:	21f0      	movs	r1, #240	; 0xf0
 8001410:	4a06      	ldr	r2, [pc, #24]	; (800142c <HAL_SYSTICK_Config+0x28>)
 8001412:	6058      	str	r0, [r3, #4]
 8001414:	2000      	movs	r0, #0
 8001416:	f882 1023 	strb.w	r1, [r2, #35]	; 0x23
 800141a:	2207      	movs	r2, #7
 800141c:	6098      	str	r0, [r3, #8]
 800141e:	601a      	str	r2, [r3, #0]
 8001420:	4770      	bx	lr
 8001422:	2001      	movs	r0, #1
 8001424:	4770      	bx	lr
 8001426:	bf00      	nop
 8001428:	e000e010 	and	lr, r0, r0, lsl r0
 800142c:	e000ed00 	and	lr, r0, r0, lsl #26

08001430 <HAL_MPU_ConfigRegion>:
 8001430:	7843      	ldrb	r3, [r0, #1]
 8001432:	4a12      	ldr	r2, [pc, #72]	; (800147c <HAL_MPU_ConfigRegion+0x4c>)
 8001434:	b510      	push	{r4, lr}
 8001436:	6093      	str	r3, [r2, #8]
 8001438:	7801      	ldrb	r1, [r0, #0]
 800143a:	b1d9      	cbz	r1, 8001474 <HAL_MPU_ConfigRegion+0x44>
 800143c:	6843      	ldr	r3, [r0, #4]
 800143e:	60d3      	str	r3, [r2, #12]
 8001440:	7ac3      	ldrb	r3, [r0, #11]
 8001442:	7b04      	ldrb	r4, [r0, #12]
 8001444:	061b      	lsls	r3, r3, #24
 8001446:	ea43 7304 	orr.w	r3, r3, r4, lsl #28
 800144a:	430b      	orrs	r3, r1
 800144c:	7a81      	ldrb	r1, [r0, #10]
 800144e:	ea43 43c1 	orr.w	r3, r3, r1, lsl #19
 8001452:	7b41      	ldrb	r1, [r0, #13]
 8001454:	ea43 4381 	orr.w	r3, r3, r1, lsl #18
 8001458:	7b81      	ldrb	r1, [r0, #14]
 800145a:	ea43 4341 	orr.w	r3, r3, r1, lsl #17
 800145e:	7bc1      	ldrb	r1, [r0, #15]
 8001460:	ea43 4301 	orr.w	r3, r3, r1, lsl #16
 8001464:	7a41      	ldrb	r1, [r0, #9]
 8001466:	ea43 2301 	orr.w	r3, r3, r1, lsl #8
 800146a:	7a01      	ldrb	r1, [r0, #8]
 800146c:	ea43 0341 	orr.w	r3, r3, r1, lsl #1
 8001470:	6113      	str	r3, [r2, #16]
 8001472:	bd10      	pop	{r4, pc}
 8001474:	60d1      	str	r1, [r2, #12]
 8001476:	6111      	str	r1, [r2, #16]
 8001478:	bd10      	pop	{r4, pc}
 800147a:	bf00      	nop
 800147c:	e000ed90 	mul	r0, r0, sp

08001480 <HAL_RCC_OscConfig>:
 8001480:	6803      	ldr	r3, [r0, #0]
 8001482:	b5f7      	push	{r0, r1, r2, r4, r5, r6, r7, lr}
 8001484:	07de      	lsls	r6, r3, #31
 8001486:	4605      	mov	r5, r0
 8001488:	d458      	bmi.n	800153c <HAL_RCC_OscConfig+0xbc>
 800148a:	682b      	ldr	r3, [r5, #0]
 800148c:	079c      	lsls	r4, r3, #30
 800148e:	f100 80c7 	bmi.w	8001620 <HAL_RCC_OscConfig+0x1a0>
 8001492:	682b      	ldr	r3, [r5, #0]
 8001494:	071a      	lsls	r2, r3, #28
 8001496:	f100 8115 	bmi.w	80016c4 <HAL_RCC_OscConfig+0x244>
 800149a:	682b      	ldr	r3, [r5, #0]
 800149c:	075b      	lsls	r3, r3, #29
 800149e:	d547      	bpl.n	8001530 <HAL_RCC_OscConfig+0xb0>
 80014a0:	2300      	movs	r3, #0
 80014a2:	4ca5      	ldr	r4, [pc, #660]	; (8001738 <HAL_RCC_OscConfig+0x2b8>)
 80014a4:	9301      	str	r3, [sp, #4]
 80014a6:	4ba5      	ldr	r3, [pc, #660]	; (800173c <HAL_RCC_OscConfig+0x2bc>)
 80014a8:	6c1a      	ldr	r2, [r3, #64]	; 0x40
 80014aa:	f042 5280 	orr.w	r2, r2, #268435456	; 0x10000000
 80014ae:	641a      	str	r2, [r3, #64]	; 0x40
 80014b0:	6c1b      	ldr	r3, [r3, #64]	; 0x40
 80014b2:	f003 5380 	and.w	r3, r3, #268435456	; 0x10000000
 80014b6:	9301      	str	r3, [sp, #4]
 80014b8:	9b01      	ldr	r3, [sp, #4]
 80014ba:	6823      	ldr	r3, [r4, #0]
 80014bc:	f443 7380 	orr.w	r3, r3, #256	; 0x100
 80014c0:	6023      	str	r3, [r4, #0]
 80014c2:	f7ff f927 	bl	8000714 <HAL_GetTick>
 80014c6:	4606      	mov	r6, r0
 80014c8:	6823      	ldr	r3, [r4, #0]
 80014ca:	05d9      	lsls	r1, r3, #23
 80014cc:	f140 811f 	bpl.w	800170e <HAL_RCC_OscConfig+0x28e>
 80014d0:	4c9a      	ldr	r4, [pc, #616]	; (800173c <HAL_RCC_OscConfig+0x2bc>)
 80014d2:	f241 3788 	movw	r7, #5000	; 0x1388
 80014d6:	6f23      	ldr	r3, [r4, #112]	; 0x70
 80014d8:	f023 0301 	bic.w	r3, r3, #1
 80014dc:	6723      	str	r3, [r4, #112]	; 0x70
 80014de:	6f23      	ldr	r3, [r4, #112]	; 0x70
 80014e0:	f023 0304 	bic.w	r3, r3, #4
 80014e4:	6723      	str	r3, [r4, #112]	; 0x70
 80014e6:	6f23      	ldr	r3, [r4, #112]	; 0x70
 80014e8:	f023 0301 	bic.w	r3, r3, #1
 80014ec:	6723      	str	r3, [r4, #112]	; 0x70
 80014ee:	f7ff f911 	bl	8000714 <HAL_GetTick>
 80014f2:	4606      	mov	r6, r0
 80014f4:	6f23      	ldr	r3, [r4, #112]	; 0x70
 80014f6:	079a      	lsls	r2, r3, #30
 80014f8:	f100 8110 	bmi.w	800171c <HAL_RCC_OscConfig+0x29c>
 80014fc:	6f23      	ldr	r3, [r4, #112]	; 0x70
 80014fe:	f023 0301 	bic.w	r3, r3, #1
 8001502:	6723      	str	r3, [r4, #112]	; 0x70
 8001504:	68ab      	ldr	r3, [r5, #8]
 8001506:	2b01      	cmp	r3, #1
 8001508:	f040 810f 	bne.w	800172a <HAL_RCC_OscConfig+0x2aa>
 800150c:	6f23      	ldr	r3, [r4, #112]	; 0x70
 800150e:	f023 0304 	bic.w	r3, r3, #4
 8001512:	6723      	str	r3, [r4, #112]	; 0x70
 8001514:	6f23      	ldr	r3, [r4, #112]	; 0x70
 8001516:	f043 0301 	orr.w	r3, r3, #1
 800151a:	6723      	str	r3, [r4, #112]	; 0x70
 800151c:	f7ff f8fa 	bl	8000714 <HAL_GetTick>
 8001520:	4c86      	ldr	r4, [pc, #536]	; (800173c <HAL_RCC_OscConfig+0x2bc>)
 8001522:	4606      	mov	r6, r0
 8001524:	f241 3788 	movw	r7, #5000	; 0x1388
 8001528:	6f23      	ldr	r3, [r4, #112]	; 0x70
 800152a:	079b      	lsls	r3, r3, #30
 800152c:	f140 8123 	bpl.w	8001776 <HAL_RCC_OscConfig+0x2f6>
 8001530:	69aa      	ldr	r2, [r5, #24]
 8001532:	2a00      	cmp	r2, #0
 8001534:	f040 8126 	bne.w	8001784 <HAL_RCC_OscConfig+0x304>
 8001538:	2000      	movs	r0, #0
 800153a:	e015      	b.n	8001568 <HAL_RCC_OscConfig+0xe8>
 800153c:	4b7f      	ldr	r3, [pc, #508]	; (800173c <HAL_RCC_OscConfig+0x2bc>)
 800153e:	689a      	ldr	r2, [r3, #8]
 8001540:	f002 020c 	and.w	r2, r2, #12
 8001544:	2a04      	cmp	r2, #4
 8001546:	d007      	beq.n	8001558 <HAL_RCC_OscConfig+0xd8>
 8001548:	689a      	ldr	r2, [r3, #8]
 800154a:	f002 020c 	and.w	r2, r2, #12
 800154e:	2a08      	cmp	r2, #8
 8001550:	d10c      	bne.n	800156c <HAL_RCC_OscConfig+0xec>
 8001552:	685b      	ldr	r3, [r3, #4]
 8001554:	0258      	lsls	r0, r3, #9
 8001556:	d509      	bpl.n	800156c <HAL_RCC_OscConfig+0xec>
 8001558:	4b78      	ldr	r3, [pc, #480]	; (800173c <HAL_RCC_OscConfig+0x2bc>)
 800155a:	681b      	ldr	r3, [r3, #0]
 800155c:	0399      	lsls	r1, r3, #14
 800155e:	d594      	bpl.n	800148a <HAL_RCC_OscConfig+0xa>
 8001560:	686b      	ldr	r3, [r5, #4]
 8001562:	2b00      	cmp	r3, #0
 8001564:	d191      	bne.n	800148a <HAL_RCC_OscConfig+0xa>
 8001566:	2001      	movs	r0, #1
 8001568:	b003      	add	sp, #12
 800156a:	bdf0      	pop	{r4, r5, r6, r7, pc}
 800156c:	4c73      	ldr	r4, [pc, #460]	; (800173c <HAL_RCC_OscConfig+0x2bc>)
 800156e:	6823      	ldr	r3, [r4, #0]
 8001570:	f423 3380 	bic.w	r3, r3, #65536	; 0x10000
 8001574:	6023      	str	r3, [r4, #0]
 8001576:	6823      	ldr	r3, [r4, #0]
 8001578:	f423 2380 	bic.w	r3, r3, #262144	; 0x40000
 800157c:	6023      	str	r3, [r4, #0]
 800157e:	6823      	ldr	r3, [r4, #0]
 8001580:	f423 3380 	bic.w	r3, r3, #65536	; 0x10000
 8001584:	6023      	str	r3, [r4, #0]
 8001586:	f7ff f8c5 	bl	8000714 <HAL_GetTick>
 800158a:	4606      	mov	r6, r0
 800158c:	6823      	ldr	r3, [r4, #0]
 800158e:	039a      	lsls	r2, r3, #14
 8001590:	d41e      	bmi.n	80015d0 <HAL_RCC_OscConfig+0x150>
 8001592:	6823      	ldr	r3, [r4, #0]
 8001594:	f423 3380 	bic.w	r3, r3, #65536	; 0x10000
 8001598:	6023      	str	r3, [r4, #0]
 800159a:	686b      	ldr	r3, [r5, #4]
 800159c:	f5b3 3f80 	cmp.w	r3, #65536	; 0x10000
 80015a0:	d11e      	bne.n	80015e0 <HAL_RCC_OscConfig+0x160>
 80015a2:	6823      	ldr	r3, [r4, #0]
 80015a4:	f423 2380 	bic.w	r3, r3, #262144	; 0x40000
 80015a8:	6023      	str	r3, [r4, #0]
 80015aa:	6823      	ldr	r3, [r4, #0]
 80015ac:	f443 3380 	orr.w	r3, r3, #65536	; 0x10000
 80015b0:	6023      	str	r3, [r4, #0]
 80015b2:	f7ff f8af 	bl	8000714 <HAL_GetTick>
 80015b6:	4c61      	ldr	r4, [pc, #388]	; (800173c <HAL_RCC_OscConfig+0x2bc>)
 80015b8:	4606      	mov	r6, r0
 80015ba:	6823      	ldr	r3, [r4, #0]
 80015bc:	039b      	lsls	r3, r3, #14
 80015be:	f53f af64 	bmi.w	800148a <HAL_RCC_OscConfig+0xa>
 80015c2:	f7ff f8a7 	bl	8000714 <HAL_GetTick>
 80015c6:	1b80      	subs	r0, r0, r6
 80015c8:	f5b0 7ffa 	cmp.w	r0, #500	; 0x1f4
 80015cc:	d9f5      	bls.n	80015ba <HAL_RCC_OscConfig+0x13a>
 80015ce:	e005      	b.n	80015dc <HAL_RCC_OscConfig+0x15c>
 80015d0:	f7ff f8a0 	bl	8000714 <HAL_GetTick>
 80015d4:	1b80      	subs	r0, r0, r6
 80015d6:	f5b0 7ffa 	cmp.w	r0, #500	; 0x1f4
 80015da:	d9d7      	bls.n	800158c <HAL_RCC_OscConfig+0x10c>
 80015dc:	2003      	movs	r0, #3
 80015de:	e7c3      	b.n	8001568 <HAL_RCC_OscConfig+0xe8>
 80015e0:	f5b3 2fa0 	cmp.w	r3, #327680	; 0x50000
 80015e4:	d103      	bne.n	80015ee <HAL_RCC_OscConfig+0x16e>
 80015e6:	6823      	ldr	r3, [r4, #0]
 80015e8:	f443 2380 	orr.w	r3, r3, #262144	; 0x40000
 80015ec:	e7dc      	b.n	80015a8 <HAL_RCC_OscConfig+0x128>
 80015ee:	6822      	ldr	r2, [r4, #0]
 80015f0:	f422 2280 	bic.w	r2, r2, #262144	; 0x40000
 80015f4:	6022      	str	r2, [r4, #0]
 80015f6:	6822      	ldr	r2, [r4, #0]
 80015f8:	f422 3280 	bic.w	r2, r2, #65536	; 0x10000
 80015fc:	6022      	str	r2, [r4, #0]
 80015fe:	2b00      	cmp	r3, #0
 8001600:	d1d7      	bne.n	80015b2 <HAL_RCC_OscConfig+0x132>
 8001602:	f7ff f887 	bl	8000714 <HAL_GetTick>
 8001606:	4c4d      	ldr	r4, [pc, #308]	; (800173c <HAL_RCC_OscConfig+0x2bc>)
 8001608:	4606      	mov	r6, r0
 800160a:	6823      	ldr	r3, [r4, #0]
 800160c:	039f      	lsls	r7, r3, #14
 800160e:	f57f af3c 	bpl.w	800148a <HAL_RCC_OscConfig+0xa>
 8001612:	f7ff f87f 	bl	8000714 <HAL_GetTick>
 8001616:	1b80      	subs	r0, r0, r6
 8001618:	f5b0 7ffa 	cmp.w	r0, #500	; 0x1f4
 800161c:	d9f5      	bls.n	800160a <HAL_RCC_OscConfig+0x18a>
 800161e:	e7dd      	b.n	80015dc <HAL_RCC_OscConfig+0x15c>
 8001620:	4b46      	ldr	r3, [pc, #280]	; (800173c <HAL_RCC_OscConfig+0x2bc>)
 8001622:	689a      	ldr	r2, [r3, #8]
 8001624:	f012 0f0c 	tst.w	r2, #12
 8001628:	d007      	beq.n	800163a <HAL_RCC_OscConfig+0x1ba>
 800162a:	689a      	ldr	r2, [r3, #8]
 800162c:	f002 020c 	and.w	r2, r2, #12
 8001630:	2a08      	cmp	r2, #8
 8001632:	d116      	bne.n	8001662 <HAL_RCC_OscConfig+0x1e2>
 8001634:	685b      	ldr	r3, [r3, #4]
 8001636:	025e      	lsls	r6, r3, #9
 8001638:	d413      	bmi.n	8001662 <HAL_RCC_OscConfig+0x1e2>
 800163a:	4b40      	ldr	r3, [pc, #256]	; (800173c <HAL_RCC_OscConfig+0x2bc>)
 800163c:	681a      	ldr	r2, [r3, #0]
 800163e:	0794      	lsls	r4, r2, #30
 8001640:	d502      	bpl.n	8001648 <HAL_RCC_OscConfig+0x1c8>
 8001642:	68ea      	ldr	r2, [r5, #12]
 8001644:	2a01      	cmp	r2, #1
 8001646:	d18e      	bne.n	8001566 <HAL_RCC_OscConfig+0xe6>
 8001648:	6818      	ldr	r0, [r3, #0]
 800164a:	22f8      	movs	r2, #248	; 0xf8
 800164c:	fa92 f2a2 	rbit	r2, r2
 8001650:	fab2 f182 	clz	r1, r2
 8001654:	692a      	ldr	r2, [r5, #16]
 8001656:	408a      	lsls	r2, r1
 8001658:	f020 01f8 	bic.w	r1, r0, #248	; 0xf8
 800165c:	430a      	orrs	r2, r1
 800165e:	601a      	str	r2, [r3, #0]
 8001660:	e717      	b.n	8001492 <HAL_RCC_OscConfig+0x12>
 8001662:	68eb      	ldr	r3, [r5, #12]
 8001664:	4c35      	ldr	r4, [pc, #212]	; (800173c <HAL_RCC_OscConfig+0x2bc>)
 8001666:	b1e3      	cbz	r3, 80016a2 <HAL_RCC_OscConfig+0x222>
 8001668:	6823      	ldr	r3, [r4, #0]
 800166a:	f043 0301 	orr.w	r3, r3, #1
 800166e:	6023      	str	r3, [r4, #0]
 8001670:	f7ff f850 	bl	8000714 <HAL_GetTick>
 8001674:	4606      	mov	r6, r0
 8001676:	6823      	ldr	r3, [r4, #0]
 8001678:	0798      	lsls	r0, r3, #30
 800167a:	d50c      	bpl.n	8001696 <HAL_RCC_OscConfig+0x216>
 800167c:	6821      	ldr	r1, [r4, #0]
 800167e:	23f8      	movs	r3, #248	; 0xf8
 8001680:	fa93 f3a3 	rbit	r3, r3
 8001684:	fab3 f283 	clz	r2, r3
 8001688:	692b      	ldr	r3, [r5, #16]
 800168a:	4093      	lsls	r3, r2
 800168c:	f021 02f8 	bic.w	r2, r1, #248	; 0xf8
 8001690:	4313      	orrs	r3, r2
 8001692:	6023      	str	r3, [r4, #0]
 8001694:	e6fd      	b.n	8001492 <HAL_RCC_OscConfig+0x12>
 8001696:	f7ff f83d 	bl	8000714 <HAL_GetTick>
 800169a:	1b80      	subs	r0, r0, r6
 800169c:	2864      	cmp	r0, #100	; 0x64
 800169e:	d9ea      	bls.n	8001676 <HAL_RCC_OscConfig+0x1f6>
 80016a0:	e79c      	b.n	80015dc <HAL_RCC_OscConfig+0x15c>
 80016a2:	6823      	ldr	r3, [r4, #0]
 80016a4:	f023 0301 	bic.w	r3, r3, #1
 80016a8:	6023      	str	r3, [r4, #0]
 80016aa:	f7ff f833 	bl	8000714 <HAL_GetTick>
 80016ae:	4606      	mov	r6, r0
 80016b0:	6823      	ldr	r3, [r4, #0]
 80016b2:	0799      	lsls	r1, r3, #30
 80016b4:	f57f aeed 	bpl.w	8001492 <HAL_RCC_OscConfig+0x12>
 80016b8:	f7ff f82c 	bl	8000714 <HAL_GetTick>
 80016bc:	1b80      	subs	r0, r0, r6
 80016be:	2864      	cmp	r0, #100	; 0x64
 80016c0:	d9f6      	bls.n	80016b0 <HAL_RCC_OscConfig+0x230>
 80016c2:	e78b      	b.n	80015dc <HAL_RCC_OscConfig+0x15c>
 80016c4:	696b      	ldr	r3, [r5, #20]
 80016c6:	4c1d      	ldr	r4, [pc, #116]	; (800173c <HAL_RCC_OscConfig+0x2bc>)
 80016c8:	b183      	cbz	r3, 80016ec <HAL_RCC_OscConfig+0x26c>
 80016ca:	6f63      	ldr	r3, [r4, #116]	; 0x74
 80016cc:	f043 0301 	orr.w	r3, r3, #1
 80016d0:	6763      	str	r3, [r4, #116]	; 0x74
 80016d2:	f7ff f81f 	bl	8000714 <HAL_GetTick>
 80016d6:	4606      	mov	r6, r0
 80016d8:	6f63      	ldr	r3, [r4, #116]	; 0x74
 80016da:	079f      	lsls	r7, r3, #30
 80016dc:	f53f aedd 	bmi.w	800149a <HAL_RCC_OscConfig+0x1a>
 80016e0:	f7ff f818 	bl	8000714 <HAL_GetTick>
 80016e4:	1b80      	subs	r0, r0, r6
 80016e6:	2864      	cmp	r0, #100	; 0x64
 80016e8:	d9f6      	bls.n	80016d8 <HAL_RCC_OscConfig+0x258>
 80016ea:	e777      	b.n	80015dc <HAL_RCC_OscConfig+0x15c>
 80016ec:	6f63      	ldr	r3, [r4, #116]	; 0x74
 80016ee:	f023 0301 	bic.w	r3, r3, #1
 80016f2:	6763      	str	r3, [r4, #116]	; 0x74
 80016f4:	f7ff f80e 	bl	8000714 <HAL_GetTick>
 80016f8:	4606      	mov	r6, r0
 80016fa:	6f63      	ldr	r3, [r4, #116]	; 0x74
 80016fc:	0798      	lsls	r0, r3, #30
 80016fe:	f57f aecc 	bpl.w	800149a <HAL_RCC_OscConfig+0x1a>
 8001702:	f7ff f807 	bl	8000714 <HAL_GetTick>
 8001706:	1b80      	subs	r0, r0, r6
 8001708:	2864      	cmp	r0, #100	; 0x64
 800170a:	d9f6      	bls.n	80016fa <HAL_RCC_OscConfig+0x27a>
 800170c:	e766      	b.n	80015dc <HAL_RCC_OscConfig+0x15c>
 800170e:	f7ff f801 	bl	8000714 <HAL_GetTick>
 8001712:	1b80      	subs	r0, r0, r6
 8001714:	2864      	cmp	r0, #100	; 0x64
 8001716:	f67f aed7 	bls.w	80014c8 <HAL_RCC_OscConfig+0x48>
 800171a:	e75f      	b.n	80015dc <HAL_RCC_OscConfig+0x15c>
 800171c:	f7fe fffa 	bl	8000714 <HAL_GetTick>
 8001720:	1b80      	subs	r0, r0, r6
 8001722:	42b8      	cmp	r0, r7
 8001724:	f67f aee6 	bls.w	80014f4 <HAL_RCC_OscConfig+0x74>
 8001728:	e758      	b.n	80015dc <HAL_RCC_OscConfig+0x15c>
 800172a:	2b05      	cmp	r3, #5
 800172c:	d108      	bne.n	8001740 <HAL_RCC_OscConfig+0x2c0>
 800172e:	6f23      	ldr	r3, [r4, #112]	; 0x70
 8001730:	f043 0304 	orr.w	r3, r3, #4
 8001734:	e6ed      	b.n	8001512 <HAL_RCC_OscConfig+0x92>
 8001736:	bf00      	nop
 8001738:	40007000 	andmi	r7, r0, r0
 800173c:	40023800 	andmi	r3, r2, r0, lsl #16
 8001740:	6f22      	ldr	r2, [r4, #112]	; 0x70
 8001742:	f022 0204 	bic.w	r2, r2, #4
 8001746:	6722      	str	r2, [r4, #112]	; 0x70
 8001748:	6f22      	ldr	r2, [r4, #112]	; 0x70
 800174a:	f022 0201 	bic.w	r2, r2, #1
 800174e:	6722      	str	r2, [r4, #112]	; 0x70
 8001750:	2b00      	cmp	r3, #0
 8001752:	f47f aee3 	bne.w	800151c <HAL_RCC_OscConfig+0x9c>
 8001756:	f7fe ffdd 	bl	8000714 <HAL_GetTick>
 800175a:	4c39      	ldr	r4, [pc, #228]	; (8001840 <HAL_RCC_OscConfig+0x3c0>)
 800175c:	4606      	mov	r6, r0
 800175e:	f241 3788 	movw	r7, #5000	; 0x1388
 8001762:	6f23      	ldr	r3, [r4, #112]	; 0x70
 8001764:	0798      	lsls	r0, r3, #30
 8001766:	f57f aee3 	bpl.w	8001530 <HAL_RCC_OscConfig+0xb0>
 800176a:	f7fe ffd3 	bl	8000714 <HAL_GetTick>
 800176e:	1b80      	subs	r0, r0, r6
 8001770:	42b8      	cmp	r0, r7
 8001772:	d9f6      	bls.n	8001762 <HAL_RCC_OscConfig+0x2e2>
 8001774:	e732      	b.n	80015dc <HAL_RCC_OscConfig+0x15c>
 8001776:	f7fe ffcd 	bl	8000714 <HAL_GetTick>
 800177a:	1b80      	subs	r0, r0, r6
 800177c:	42b8      	cmp	r0, r7
 800177e:	f67f aed3 	bls.w	8001528 <HAL_RCC_OscConfig+0xa8>
 8001782:	e72b      	b.n	80015dc <HAL_RCC_OscConfig+0x15c>
 8001784:	4c2e      	ldr	r4, [pc, #184]	; (8001840 <HAL_RCC_OscConfig+0x3c0>)
 8001786:	68a3      	ldr	r3, [r4, #8]
 8001788:	f003 030c 	and.w	r3, r3, #12
 800178c:	2b08      	cmp	r3, #8
 800178e:	f43f aeea 	beq.w	8001566 <HAL_RCC_OscConfig+0xe6>
 8001792:	6823      	ldr	r3, [r4, #0]
 8001794:	2a02      	cmp	r2, #2
 8001796:	f023 7380 	bic.w	r3, r3, #16777216	; 0x1000000
 800179a:	6023      	str	r3, [r4, #0]
 800179c:	d142      	bne.n	8001824 <HAL_RCC_OscConfig+0x3a4>
 800179e:	f7fe ffb9 	bl	8000714 <HAL_GetTick>
 80017a2:	4606      	mov	r6, r0
 80017a4:	6823      	ldr	r3, [r4, #0]
 80017a6:	0199      	lsls	r1, r3, #6
 80017a8:	d436      	bmi.n	8001818 <HAL_RCC_OscConfig+0x398>
 80017aa:	f647 76c0 	movw	r6, #32704	; 0x7fc0
 80017ae:	fa96 f6a6 	rbit	r6, r6
 80017b2:	f44f 3240 	mov.w	r2, #196608	; 0x30000
 80017b6:	fab6 f686 	clz	r6, r6
 80017ba:	fa92 f2a2 	rbit	r2, r2
 80017be:	f04f 6170 	mov.w	r1, #251658240	; 0xf000000
 80017c2:	fab2 f082 	clz	r0, r2
 80017c6:	fa91 f1a1 	rbit	r1, r1
 80017ca:	69ea      	ldr	r2, [r5, #28]
 80017cc:	fab1 f181 	clz	r1, r1
 80017d0:	6a2b      	ldr	r3, [r5, #32]
 80017d2:	4313      	orrs	r3, r2
 80017d4:	6a6a      	ldr	r2, [r5, #36]	; 0x24
 80017d6:	fa02 f606 	lsl.w	r6, r2, r6
 80017da:	6aaa      	ldr	r2, [r5, #40]	; 0x28
 80017dc:	f043 5300 	orr.w	r3, r3, #536870912	; 0x20000000
 80017e0:	0852      	lsrs	r2, r2, #1
 80017e2:	4333      	orrs	r3, r6
 80017e4:	3a01      	subs	r2, #1
 80017e6:	4082      	lsls	r2, r0
 80017e8:	4313      	orrs	r3, r2
 80017ea:	6aea      	ldr	r2, [r5, #44]	; 0x2c
 80017ec:	fa02 f101 	lsl.w	r1, r2, r1
 80017f0:	430b      	orrs	r3, r1
 80017f2:	6063      	str	r3, [r4, #4]
 80017f4:	6823      	ldr	r3, [r4, #0]
 80017f6:	f043 7380 	orr.w	r3, r3, #16777216	; 0x1000000
 80017fa:	6023      	str	r3, [r4, #0]
 80017fc:	f7fe ff8a 	bl	8000714 <HAL_GetTick>
 8001800:	4c0f      	ldr	r4, [pc, #60]	; (8001840 <HAL_RCC_OscConfig+0x3c0>)
 8001802:	4605      	mov	r5, r0
 8001804:	6823      	ldr	r3, [r4, #0]
 8001806:	019a      	lsls	r2, r3, #6
 8001808:	f53f ae96 	bmi.w	8001538 <HAL_RCC_OscConfig+0xb8>
 800180c:	f7fe ff82 	bl	8000714 <HAL_GetTick>
 8001810:	1b40      	subs	r0, r0, r5
 8001812:	2864      	cmp	r0, #100	; 0x64
 8001814:	d9f6      	bls.n	8001804 <HAL_RCC_OscConfig+0x384>
 8001816:	e6e1      	b.n	80015dc <HAL_RCC_OscConfig+0x15c>
 8001818:	f7fe ff7c 	bl	8000714 <HAL_GetTick>
 800181c:	1b80      	subs	r0, r0, r6
 800181e:	2864      	cmp	r0, #100	; 0x64
 8001820:	d9c0      	bls.n	80017a4 <HAL_RCC_OscConfig+0x324>
 8001822:	e6db      	b.n	80015dc <HAL_RCC_OscConfig+0x15c>
 8001824:	f7fe ff76 	bl	8000714 <HAL_GetTick>
 8001828:	4605      	mov	r5, r0
 800182a:	6823      	ldr	r3, [r4, #0]
 800182c:	019b      	lsls	r3, r3, #6
 800182e:	f57f ae83 	bpl.w	8001538 <HAL_RCC_OscConfig+0xb8>
 8001832:	f7fe ff6f 	bl	8000714 <HAL_GetTick>
 8001836:	1b40      	subs	r0, r0, r5
 8001838:	2864      	cmp	r0, #100	; 0x64
 800183a:	d9f6      	bls.n	800182a <HAL_RCC_OscConfig+0x3aa>
 800183c:	e6ce      	b.n	80015dc <HAL_RCC_OscConfig+0x15c>
 800183e:	bf00      	nop
 8001840:	40023800 	andmi	r3, r2, r0, lsl #16

08001844 <HAL_RCC_ClockConfig>:
 8001844:	4a6c      	ldr	r2, [pc, #432]	; (80019f8 <HAL_RCC_ClockConfig+0x1b4>)
 8001846:	6813      	ldr	r3, [r2, #0]
 8001848:	f003 030f 	and.w	r3, r3, #15
 800184c:	428b      	cmp	r3, r1
 800184e:	e92d 41f0 	stmdb	sp!, {r4, r5, r6, r7, r8, lr}
 8001852:	4604      	mov	r4, r0
 8001854:	460d      	mov	r5, r1
 8001856:	d26e      	bcs.n	8001936 <HAL_RCC_ClockConfig+0xf2>
 8001858:	6813      	ldr	r3, [r2, #0]
 800185a:	f023 030f 	bic.w	r3, r3, #15
 800185e:	430b      	orrs	r3, r1
 8001860:	6013      	str	r3, [r2, #0]
 8001862:	6813      	ldr	r3, [r2, #0]
 8001864:	f003 030f 	and.w	r3, r3, #15
 8001868:	4299      	cmp	r1, r3
 800186a:	d002      	beq.n	8001872 <HAL_RCC_ClockConfig+0x2e>
 800186c:	2001      	movs	r0, #1
 800186e:	e8bd 81f0 	ldmia.w	sp!, {r4, r5, r6, r7, r8, pc}
 8001872:	6802      	ldr	r2, [r0, #0]
 8001874:	0796      	lsls	r6, r2, #30
 8001876:	d506      	bpl.n	8001886 <HAL_RCC_ClockConfig+0x42>
 8001878:	4960      	ldr	r1, [pc, #384]	; (80019fc <HAL_RCC_ClockConfig+0x1b8>)
 800187a:	6880      	ldr	r0, [r0, #8]
 800187c:	688b      	ldr	r3, [r1, #8]
 800187e:	f023 03f0 	bic.w	r3, r3, #240	; 0xf0
 8001882:	4303      	orrs	r3, r0
 8001884:	608b      	str	r3, [r1, #8]
 8001886:	07d5      	lsls	r5, r2, #31
 8001888:	d413      	bmi.n	80018b2 <HAL_RCC_ClockConfig+0x6e>
 800188a:	6822      	ldr	r2, [r4, #0]
 800188c:	0750      	lsls	r0, r2, #29
 800188e:	f100 80ab 	bmi.w	80019e8 <HAL_RCC_ClockConfig+0x1a4>
 8001892:	0713      	lsls	r3, r2, #28
 8001894:	d507      	bpl.n	80018a6 <HAL_RCC_ClockConfig+0x62>
 8001896:	4a59      	ldr	r2, [pc, #356]	; (80019fc <HAL_RCC_ClockConfig+0x1b8>)
 8001898:	6921      	ldr	r1, [r4, #16]
 800189a:	6893      	ldr	r3, [r2, #8]
 800189c:	f423 4360 	bic.w	r3, r3, #57344	; 0xe000
 80018a0:	ea43 03c1 	orr.w	r3, r3, r1, lsl #3
 80018a4:	6093      	str	r3, [r2, #8]
 80018a6:	200f      	movs	r0, #15
 80018a8:	f7fe ff10 	bl	80006cc <HAL_InitTick>
 80018ac:	2000      	movs	r0, #0
 80018ae:	e8bd 81f0 	ldmia.w	sp!, {r4, r5, r6, r7, r8, pc}
 80018b2:	6861      	ldr	r1, [r4, #4]
 80018b4:	4b51      	ldr	r3, [pc, #324]	; (80019fc <HAL_RCC_ClockConfig+0x1b8>)
 80018b6:	2901      	cmp	r1, #1
 80018b8:	681a      	ldr	r2, [r3, #0]
 80018ba:	d11d      	bne.n	80018f8 <HAL_RCC_ClockConfig+0xb4>
 80018bc:	f412 3f00 	tst.w	r2, #131072	; 0x20000
 80018c0:	d0d4      	beq.n	800186c <HAL_RCC_ClockConfig+0x28>
 80018c2:	689a      	ldr	r2, [r3, #8]
 80018c4:	f241 3788 	movw	r7, #5000	; 0x1388
 80018c8:	4e4c      	ldr	r6, [pc, #304]	; (80019fc <HAL_RCC_ClockConfig+0x1b8>)
 80018ca:	f022 0203 	bic.w	r2, r2, #3
 80018ce:	430a      	orrs	r2, r1
 80018d0:	609a      	str	r2, [r3, #8]
 80018d2:	f7fe ff1f 	bl	8000714 <HAL_GetTick>
 80018d6:	6863      	ldr	r3, [r4, #4]
 80018d8:	4605      	mov	r5, r0
 80018da:	2b01      	cmp	r3, #1
 80018dc:	d114      	bne.n	8001908 <HAL_RCC_ClockConfig+0xc4>
 80018de:	68b3      	ldr	r3, [r6, #8]
 80018e0:	f003 030c 	and.w	r3, r3, #12
 80018e4:	2b04      	cmp	r3, #4
 80018e6:	d0d0      	beq.n	800188a <HAL_RCC_ClockConfig+0x46>
 80018e8:	f7fe ff14 	bl	8000714 <HAL_GetTick>
 80018ec:	1b40      	subs	r0, r0, r5
 80018ee:	42b8      	cmp	r0, r7
 80018f0:	d9f5      	bls.n	80018de <HAL_RCC_ClockConfig+0x9a>
 80018f2:	2003      	movs	r0, #3
 80018f4:	e8bd 81f0 	ldmia.w	sp!, {r4, r5, r6, r7, r8, pc}
 80018f8:	2902      	cmp	r1, #2
 80018fa:	d102      	bne.n	8001902 <HAL_RCC_ClockConfig+0xbe>
 80018fc:	f012 7f00 	tst.w	r2, #33554432	; 0x2000000
 8001900:	e7de      	b.n	80018c0 <HAL_RCC_ClockConfig+0x7c>
 8001902:	f012 0f02 	tst.w	r2, #2
 8001906:	e7db      	b.n	80018c0 <HAL_RCC_ClockConfig+0x7c>
 8001908:	2b02      	cmp	r3, #2
 800190a:	d10f      	bne.n	800192c <HAL_RCC_ClockConfig+0xe8>
 800190c:	68b3      	ldr	r3, [r6, #8]
 800190e:	f003 030c 	and.w	r3, r3, #12
 8001912:	2b08      	cmp	r3, #8
 8001914:	d0b9      	beq.n	800188a <HAL_RCC_ClockConfig+0x46>
 8001916:	f7fe fefd 	bl	8000714 <HAL_GetTick>
 800191a:	1b40      	subs	r0, r0, r5
 800191c:	42b8      	cmp	r0, r7
 800191e:	d9f5      	bls.n	800190c <HAL_RCC_ClockConfig+0xc8>
 8001920:	e7e7      	b.n	80018f2 <HAL_RCC_ClockConfig+0xae>
 8001922:	f7fe fef7 	bl	8000714 <HAL_GetTick>
 8001926:	1b40      	subs	r0, r0, r5
 8001928:	42b8      	cmp	r0, r7
 800192a:	d8e2      	bhi.n	80018f2 <HAL_RCC_ClockConfig+0xae>
 800192c:	68b3      	ldr	r3, [r6, #8]
 800192e:	f013 0f0c 	tst.w	r3, #12
 8001932:	d1f6      	bne.n	8001922 <HAL_RCC_ClockConfig+0xde>
 8001934:	e7a9      	b.n	800188a <HAL_RCC_ClockConfig+0x46>
 8001936:	6802      	ldr	r2, [r0, #0]
 8001938:	0791      	lsls	r1, r2, #30
 800193a:	d506      	bpl.n	800194a <HAL_RCC_ClockConfig+0x106>
 800193c:	492f      	ldr	r1, [pc, #188]	; (80019fc <HAL_RCC_ClockConfig+0x1b8>)
 800193e:	6880      	ldr	r0, [r0, #8]
 8001940:	688b      	ldr	r3, [r1, #8]
 8001942:	f023 03f0 	bic.w	r3, r3, #240	; 0xf0
 8001946:	4303      	orrs	r3, r0
 8001948:	608b      	str	r3, [r1, #8]
 800194a:	07d2      	lsls	r2, r2, #31
 800194c:	d40b      	bmi.n	8001966 <HAL_RCC_ClockConfig+0x122>
 800194e:	4a2a      	ldr	r2, [pc, #168]	; (80019f8 <HAL_RCC_ClockConfig+0x1b4>)
 8001950:	6813      	ldr	r3, [r2, #0]
 8001952:	f023 030f 	bic.w	r3, r3, #15
 8001956:	432b      	orrs	r3, r5
 8001958:	6013      	str	r3, [r2, #0]
 800195a:	6813      	ldr	r3, [r2, #0]
 800195c:	f003 030f 	and.w	r3, r3, #15
 8001960:	429d      	cmp	r5, r3
 8001962:	d183      	bne.n	800186c <HAL_RCC_ClockConfig+0x28>
 8001964:	e791      	b.n	800188a <HAL_RCC_ClockConfig+0x46>
 8001966:	6861      	ldr	r1, [r4, #4]
 8001968:	4b24      	ldr	r3, [pc, #144]	; (80019fc <HAL_RCC_ClockConfig+0x1b8>)
 800196a:	2901      	cmp	r1, #1
 800196c:	681a      	ldr	r2, [r3, #0]
 800196e:	d11c      	bne.n	80019aa <HAL_RCC_ClockConfig+0x166>
 8001970:	f412 3f00 	tst.w	r2, #131072	; 0x20000
 8001974:	f43f af7a 	beq.w	800186c <HAL_RCC_ClockConfig+0x28>
 8001978:	689a      	ldr	r2, [r3, #8]
 800197a:	f241 3888 	movw	r8, #5000	; 0x1388
 800197e:	4f1f      	ldr	r7, [pc, #124]	; (80019fc <HAL_RCC_ClockConfig+0x1b8>)
 8001980:	f022 0203 	bic.w	r2, r2, #3
 8001984:	430a      	orrs	r2, r1
 8001986:	609a      	str	r2, [r3, #8]
 8001988:	f7fe fec4 	bl	8000714 <HAL_GetTick>
 800198c:	6863      	ldr	r3, [r4, #4]
 800198e:	4606      	mov	r6, r0
 8001990:	2b01      	cmp	r3, #1
 8001992:	d112      	bne.n	80019ba <HAL_RCC_ClockConfig+0x176>
 8001994:	68bb      	ldr	r3, [r7, #8]
 8001996:	f003 030c 	and.w	r3, r3, #12
 800199a:	2b04      	cmp	r3, #4
 800199c:	d0d7      	beq.n	800194e <HAL_RCC_ClockConfig+0x10a>
 800199e:	f7fe feb9 	bl	8000714 <HAL_GetTick>
 80019a2:	1b80      	subs	r0, r0, r6
 80019a4:	4540      	cmp	r0, r8
 80019a6:	d9f5      	bls.n	8001994 <HAL_RCC_ClockConfig+0x150>
 80019a8:	e7a3      	b.n	80018f2 <HAL_RCC_ClockConfig+0xae>
 80019aa:	2902      	cmp	r1, #2
 80019ac:	d102      	bne.n	80019b4 <HAL_RCC_ClockConfig+0x170>
 80019ae:	f012 7f00 	tst.w	r2, #33554432	; 0x2000000
 80019b2:	e7df      	b.n	8001974 <HAL_RCC_ClockConfig+0x130>
 80019b4:	f012 0f02 	tst.w	r2, #2
 80019b8:	e7dc      	b.n	8001974 <HAL_RCC_ClockConfig+0x130>
 80019ba:	2b02      	cmp	r3, #2
 80019bc:	d10f      	bne.n	80019de <HAL_RCC_ClockConfig+0x19a>
 80019be:	68bb      	ldr	r3, [r7, #8]
 80019c0:	f003 030c 	and.w	r3, r3, #12
 80019c4:	2b08      	cmp	r3, #8
 80019c6:	d0c2      	beq.n	800194e <HAL_RCC_ClockConfig+0x10a>
 80019c8:	f7fe fea4 	bl	8000714 <HAL_GetTick>
 80019cc:	1b80      	subs	r0, r0, r6
 80019ce:	4540      	cmp	r0, r8
 80019d0:	d9f5      	bls.n	80019be <HAL_RCC_ClockConfig+0x17a>
 80019d2:	e78e      	b.n	80018f2 <HAL_RCC_ClockConfig+0xae>
 80019d4:	f7fe fe9e 	bl	8000714 <HAL_GetTick>
 80019d8:	1b80      	subs	r0, r0, r6
 80019da:	4540      	cmp	r0, r8
 80019dc:	d889      	bhi.n	80018f2 <HAL_RCC_ClockConfig+0xae>
 80019de:	68bb      	ldr	r3, [r7, #8]
 80019e0:	f013 0f0c 	tst.w	r3, #12
 80019e4:	d1f6      	bne.n	80019d4 <HAL_RCC_ClockConfig+0x190>
 80019e6:	e7b2      	b.n	800194e <HAL_RCC_ClockConfig+0x10a>
 80019e8:	4904      	ldr	r1, [pc, #16]	; (80019fc <HAL_RCC_ClockConfig+0x1b8>)
 80019ea:	68e0      	ldr	r0, [r4, #12]
 80019ec:	688b      	ldr	r3, [r1, #8]
 80019ee:	f423 53e0 	bic.w	r3, r3, #7168	; 0x1c00
 80019f2:	4303      	orrs	r3, r0
 80019f4:	608b      	str	r3, [r1, #8]
 80019f6:	e74c      	b.n	8001892 <HAL_RCC_ClockConfig+0x4e>
 80019f8:	40023c00 	andmi	r3, r2, r0, lsl #24
 80019fc:	40023800 	andmi	r3, r2, r0, lsl #16

08001a00 <HAL_RCC_GetSysClockFreq>:
 8001a00:	4a19      	ldr	r2, [pc, #100]	; (8001a68 <HAL_RCC_GetSysClockFreq+0x68>)
 8001a02:	6893      	ldr	r3, [r2, #8]
 8001a04:	f003 030c 	and.w	r3, r3, #12
 8001a08:	2b04      	cmp	r3, #4
 8001a0a:	b510      	push	{r4, lr}
 8001a0c:	d003      	beq.n	8001a16 <HAL_RCC_GetSysClockFreq+0x16>
 8001a0e:	2b08      	cmp	r3, #8
 8001a10:	d003      	beq.n	8001a1a <HAL_RCC_GetSysClockFreq+0x1a>
 8001a12:	4816      	ldr	r0, [pc, #88]	; (8001a6c <HAL_RCC_GetSysClockFreq+0x6c>)
 8001a14:	bd10      	pop	{r4, pc}
 8001a16:	4816      	ldr	r0, [pc, #88]	; (8001a70 <HAL_RCC_GetSysClockFreq+0x70>)
 8001a18:	bd10      	pop	{r4, pc}
 8001a1a:	6851      	ldr	r1, [r2, #4]
 8001a1c:	f647 74c0 	movw	r4, #32704	; 0x7fc0
 8001a20:	6853      	ldr	r3, [r2, #4]
 8001a22:	f001 013f 	and.w	r1, r1, #63	; 0x3f
 8001a26:	f413 0f80 	tst.w	r3, #4194304	; 0x400000
 8001a2a:	6853      	ldr	r3, [r2, #4]
 8001a2c:	fa94 f0a4 	rbit	r0, r4
 8001a30:	fab0 f080 	clz	r0, r0
 8001a34:	ea03 0304 	and.w	r3, r3, r4
 8001a38:	f44f 3240 	mov.w	r2, #196608	; 0x30000
 8001a3c:	fa23 f300 	lsr.w	r3, r3, r0
 8001a40:	bf14      	ite	ne
 8001a42:	480b      	ldrne	r0, [pc, #44]	; (8001a70 <HAL_RCC_GetSysClockFreq+0x70>)
 8001a44:	4809      	ldreq	r0, [pc, #36]	; (8001a6c <HAL_RCC_GetSysClockFreq+0x6c>)
 8001a46:	fbb0 f0f1 	udiv	r0, r0, r1
 8001a4a:	4358      	muls	r0, r3
 8001a4c:	4b06      	ldr	r3, [pc, #24]	; (8001a68 <HAL_RCC_GetSysClockFreq+0x68>)
 8001a4e:	685b      	ldr	r3, [r3, #4]
 8001a50:	fa92 f2a2 	rbit	r2, r2
 8001a54:	fab2 f282 	clz	r2, r2
 8001a58:	f403 3340 	and.w	r3, r3, #196608	; 0x30000
 8001a5c:	40d3      	lsrs	r3, r2
 8001a5e:	3301      	adds	r3, #1
 8001a60:	005b      	lsls	r3, r3, #1
 8001a62:	fbb0 f0f3 	udiv	r0, r0, r3
 8001a66:	bd10      	pop	{r4, pc}
 8001a68:	40023800 	andmi	r3, r2, r0, lsl #16
 8001a6c:	00f42400 	rscseq	r2, r4, r0, lsl #8
 8001a70:	017d7840 	cmneq	sp, r0, asr #16

08001a74 <HAL_RCC_GetHCLKFreq>:
 8001a74:	b508      	push	{r3, lr}
 8001a76:	f7ff ffc3 	bl	8001a00 <HAL_RCC_GetSysClockFreq>
 8001a7a:	4b08      	ldr	r3, [pc, #32]	; (8001a9c <HAL_RCC_GetHCLKFreq+0x28>)
 8001a7c:	22f0      	movs	r2, #240	; 0xf0
 8001a7e:	689b      	ldr	r3, [r3, #8]
 8001a80:	fa92 f2a2 	rbit	r2, r2
 8001a84:	fab2 f282 	clz	r2, r2
 8001a88:	f003 03f0 	and.w	r3, r3, #240	; 0xf0
 8001a8c:	40d3      	lsrs	r3, r2
 8001a8e:	4a04      	ldr	r2, [pc, #16]	; (8001aa0 <HAL_RCC_GetHCLKFreq+0x2c>)
 8001a90:	5cd3      	ldrb	r3, [r2, r3]
 8001a92:	40d8      	lsrs	r0, r3
 8001a94:	4b03      	ldr	r3, [pc, #12]	; (8001aa4 <HAL_RCC_GetHCLKFreq+0x30>)
 8001a96:	6018      	str	r0, [r3, #0]
 8001a98:	bd08      	pop	{r3, pc}
 8001a9a:	bf00      	nop
 8001a9c:	40023800 	andmi	r3, r2, r0, lsl #16
 8001aa0:	080048d9 	stmdaeq	r0, {r0, r3, r4, r6, r7, fp, lr}
 8001aa4:	20000438 	andcs	r0, r0, r8, lsr r4

08001aa8 <HAL_RCC_GetPCLK1Freq>:
 8001aa8:	b508      	push	{r3, lr}
 8001aaa:	f7ff ffe3 	bl	8001a74 <HAL_RCC_GetHCLKFreq>
 8001aae:	4b07      	ldr	r3, [pc, #28]	; (8001acc <HAL_RCC_GetPCLK1Freq+0x24>)
 8001ab0:	f44f 52e0 	mov.w	r2, #7168	; 0x1c00
 8001ab4:	689b      	ldr	r3, [r3, #8]
 8001ab6:	fa92 f2a2 	rbit	r2, r2
 8001aba:	fab2 f282 	clz	r2, r2
 8001abe:	f403 53e0 	and.w	r3, r3, #7168	; 0x1c00
 8001ac2:	40d3      	lsrs	r3, r2
 8001ac4:	4a02      	ldr	r2, [pc, #8]	; (8001ad0 <HAL_RCC_GetPCLK1Freq+0x28>)
 8001ac6:	5cd3      	ldrb	r3, [r2, r3]
 8001ac8:	40d8      	lsrs	r0, r3
 8001aca:	bd08      	pop	{r3, pc}
 8001acc:	40023800 	andmi	r3, r2, r0, lsl #16
 8001ad0:	080048d9 	stmdaeq	r0, {r0, r3, r4, r6, r7, fp, lr}

08001ad4 <HAL_RCC_GetPCLK2Freq>:
 8001ad4:	b508      	push	{r3, lr}
 8001ad6:	f7ff ffcd 	bl	8001a74 <HAL_RCC_GetHCLKFreq>
 8001ada:	4b07      	ldr	r3, [pc, #28]	; (8001af8 <HAL_RCC_GetPCLK2Freq+0x24>)
 8001adc:	f44f 4260 	mov.w	r2, #57344	; 0xe000
 8001ae0:	689b      	ldr	r3, [r3, #8]
 8001ae2:	fa92 f2a2 	rbit	r2, r2
 8001ae6:	fab2 f282 	clz	r2, r2
 8001aea:	f403 4360 	and.w	r3, r3, #57344	; 0xe000
 8001aee:	40d3      	lsrs	r3, r2
 8001af0:	4a02      	ldr	r2, [pc, #8]	; (8001afc <HAL_RCC_GetPCLK2Freq+0x28>)
 8001af2:	5cd3      	ldrb	r3, [r2, r3]
 8001af4:	40d8      	lsrs	r0, r3
 8001af6:	bd08      	pop	{r3, pc}
 8001af8:	40023800 	andmi	r3, r2, r0, lsl #16
 8001afc:	080048d9 	stmdaeq	r0, {r0, r3, r4, r6, r7, fp, lr}

08001b00 <HAL_PWREx_EnableOverDrive>:
 8001b00:	2300      	movs	r3, #0
 8001b02:	b537      	push	{r0, r1, r2, r4, r5, lr}
 8001b04:	9301      	str	r3, [sp, #4]
 8001b06:	4b19      	ldr	r3, [pc, #100]	; (8001b6c <HAL_PWREx_EnableOverDrive+0x6c>)
 8001b08:	4c19      	ldr	r4, [pc, #100]	; (8001b70 <HAL_PWREx_EnableOverDrive+0x70>)
 8001b0a:	6c1a      	ldr	r2, [r3, #64]	; 0x40
 8001b0c:	f042 5280 	orr.w	r2, r2, #268435456	; 0x10000000
 8001b10:	641a      	str	r2, [r3, #64]	; 0x40
 8001b12:	6c1b      	ldr	r3, [r3, #64]	; 0x40
 8001b14:	f003 5380 	and.w	r3, r3, #268435456	; 0x10000000
 8001b18:	9301      	str	r3, [sp, #4]
 8001b1a:	9b01      	ldr	r3, [sp, #4]
 8001b1c:	6823      	ldr	r3, [r4, #0]
 8001b1e:	f443 3380 	orr.w	r3, r3, #65536	; 0x10000
 8001b22:	6023      	str	r3, [r4, #0]
 8001b24:	f7fe fdf6 	bl	8000714 <HAL_GetTick>
 8001b28:	4605      	mov	r5, r0
 8001b2a:	6863      	ldr	r3, [r4, #4]
 8001b2c:	03da      	lsls	r2, r3, #15
 8001b2e:	d50c      	bpl.n	8001b4a <HAL_PWREx_EnableOverDrive+0x4a>
 8001b30:	6823      	ldr	r3, [r4, #0]
 8001b32:	f443 3300 	orr.w	r3, r3, #131072	; 0x20000
 8001b36:	6023      	str	r3, [r4, #0]
 8001b38:	f7fe fdec 	bl	8000714 <HAL_GetTick>
 8001b3c:	4c0c      	ldr	r4, [pc, #48]	; (8001b70 <HAL_PWREx_EnableOverDrive+0x70>)
 8001b3e:	4605      	mov	r5, r0
 8001b40:	6863      	ldr	r3, [r4, #4]
 8001b42:	039b      	lsls	r3, r3, #14
 8001b44:	d50a      	bpl.n	8001b5c <HAL_PWREx_EnableOverDrive+0x5c>
 8001b46:	2000      	movs	r0, #0
 8001b48:	e006      	b.n	8001b58 <HAL_PWREx_EnableOverDrive+0x58>
 8001b4a:	f7fe fde3 	bl	8000714 <HAL_GetTick>
 8001b4e:	1b40      	subs	r0, r0, r5
 8001b50:	f5b0 7f7a 	cmp.w	r0, #1000	; 0x3e8
 8001b54:	d9e9      	bls.n	8001b2a <HAL_PWREx_EnableOverDrive+0x2a>
 8001b56:	2003      	movs	r0, #3
 8001b58:	b003      	add	sp, #12
 8001b5a:	bd30      	pop	{r4, r5, pc}
 8001b5c:	f7fe fdda 	bl	8000714 <HAL_GetTick>
 8001b60:	1b40      	subs	r0, r0, r5
 8001b62:	f5b0 7f7a 	cmp.w	r0, #1000	; 0x3e8
 8001b66:	d9eb      	bls.n	8001b40 <HAL_PWREx_EnableOverDrive+0x40>
 8001b68:	e7f5      	b.n	8001b56 <HAL_PWREx_EnableOverDrive+0x56>
 8001b6a:	bf00      	nop
 8001b6c:	40023800 	andmi	r3, r2, r0, lsl #16
 8001b70:	40007000 	andmi	r7, r0, r0

08001b74 <FMC_SDRAM_Init>:
 8001b74:	680b      	ldr	r3, [r1, #0]
 8001b76:	6802      	ldr	r2, [r0, #0]
 8001b78:	2b01      	cmp	r3, #1
 8001b7a:	690b      	ldr	r3, [r1, #16]
 8001b7c:	e92d 43f0 	stmdb	sp!, {r4, r5, r6, r7, r8, r9, lr}
 8001b80:	f101 0804 	add.w	r8, r1, #4
 8001b84:	f8df 9058 	ldr.w	r9, [pc, #88]	; 8001be0 <FMC_SDRAM_Init+0x6c>
 8001b88:	694d      	ldr	r5, [r1, #20]
 8001b8a:	698c      	ldr	r4, [r1, #24]
 8001b8c:	ea02 0209 	and.w	r2, r2, r9
 8001b90:	69cf      	ldr	r7, [r1, #28]
 8001b92:	6a0e      	ldr	r6, [r1, #32]
 8001b94:	6a49      	ldr	r1, [r1, #36]	; 0x24
 8001b96:	e898 5100 	ldmia.w	r8, {r8, ip, lr}
 8001b9a:	d00f      	beq.n	8001bbc <FMC_SDRAM_Init+0x48>
 8001b9c:	ea42 0208 	orr.w	r2, r2, r8
 8001ba0:	ea42 020c 	orr.w	r2, r2, ip
 8001ba4:	ea42 020e 	orr.w	r2, r2, lr
 8001ba8:	4313      	orrs	r3, r2
 8001baa:	432b      	orrs	r3, r5
 8001bac:	4323      	orrs	r3, r4
 8001bae:	433b      	orrs	r3, r7
 8001bb0:	4333      	orrs	r3, r6
 8001bb2:	430b      	orrs	r3, r1
 8001bb4:	6003      	str	r3, [r0, #0]
 8001bb6:	2000      	movs	r0, #0
 8001bb8:	e8bd 83f0 	ldmia.w	sp!, {r4, r5, r6, r7, r8, r9, pc}
 8001bbc:	4317      	orrs	r7, r2
 8001bbe:	6842      	ldr	r2, [r0, #4]
 8001bc0:	ea02 0209 	and.w	r2, r2, r9
 8001bc4:	433e      	orrs	r6, r7
 8001bc6:	ea42 0208 	orr.w	r2, r2, r8
 8001bca:	4331      	orrs	r1, r6
 8001bcc:	ea42 020c 	orr.w	r2, r2, ip
 8001bd0:	6001      	str	r1, [r0, #0]
 8001bd2:	ea42 020e 	orr.w	r2, r2, lr
 8001bd6:	4313      	orrs	r3, r2
 8001bd8:	432b      	orrs	r3, r5
 8001bda:	4323      	orrs	r3, r4
 8001bdc:	6043      	str	r3, [r0, #4]
 8001bde:	e7ea      	b.n	8001bb6 <FMC_SDRAM_Init+0x42>
 8001be0:	ffff8000 			; <UNDEFINED> instruction: 0xffff8000

08001be4 <FMC_SDRAM_Timing_Init>:
 8001be4:	f101 0308 	add.w	r3, r1, #8
 8001be8:	2a01      	cmp	r2, #1
 8001bea:	b5f0      	push	{r4, r5, r6, r7, lr}
 8001bec:	684f      	ldr	r7, [r1, #4]
 8001bee:	f8d1 e000 	ldr.w	lr, [r1]
 8001bf2:	694c      	ldr	r4, [r1, #20]
 8001bf4:	6989      	ldr	r1, [r1, #24]
 8001bf6:	cb68      	ldmia	r3, {r3, r5, r6}
 8001bf8:	d01c      	beq.n	8001c34 <FMC_SDRAM_Timing_Init+0x50>
 8001bfa:	6882      	ldr	r2, [r0, #8]
 8001bfc:	f107 3cff 	add.w	ip, r7, #4294967295	; 0xffffffff
 8001c00:	f10e 3eff 	add.w	lr, lr, #4294967295	; 0xffffffff
 8001c04:	3b01      	subs	r3, #1
 8001c06:	f002 4270 	and.w	r2, r2, #4026531840	; 0xf0000000
 8001c0a:	3d01      	subs	r5, #1
 8001c0c:	3e01      	subs	r6, #1
 8001c0e:	3c01      	subs	r4, #1
 8001c10:	ea42 120c 	orr.w	r2, r2, ip, lsl #4
 8001c14:	3901      	subs	r1, #1
 8001c16:	ea42 020e 	orr.w	r2, r2, lr
 8001c1a:	ea42 2303 	orr.w	r3, r2, r3, lsl #8
 8001c1e:	ea43 3305 	orr.w	r3, r3, r5, lsl #12
 8001c22:	ea43 4306 	orr.w	r3, r3, r6, lsl #16
 8001c26:	ea43 5304 	orr.w	r3, r3, r4, lsl #20
 8001c2a:	ea43 6301 	orr.w	r3, r3, r1, lsl #24
 8001c2e:	6083      	str	r3, [r0, #8]
 8001c30:	2000      	movs	r0, #0
 8001c32:	bdf0      	pop	{r4, r5, r6, r7, pc}
 8001c34:	68c2      	ldr	r2, [r0, #12]
 8001c36:	f107 3cff 	add.w	ip, r7, #4294967295	; 0xffffffff
 8001c3a:	f10e 3eff 	add.w	lr, lr, #4294967295	; 0xffffffff
 8001c3e:	3b01      	subs	r3, #1
 8001c40:	f002 4270 	and.w	r2, r2, #4026531840	; 0xf0000000
 8001c44:	3e01      	subs	r6, #1
 8001c46:	3901      	subs	r1, #1
 8001c48:	3c01      	subs	r4, #1
 8001c4a:	ea42 120c 	orr.w	r2, r2, ip, lsl #4
 8001c4e:	ea42 020e 	orr.w	r2, r2, lr
 8001c52:	ea42 2203 	orr.w	r2, r2, r3, lsl #8
 8001c56:	1e6b      	subs	r3, r5, #1
 8001c58:	ea42 4206 	orr.w	r2, r2, r6, lsl #16
 8001c5c:	ea42 6201 	orr.w	r2, r2, r1, lsl #24
 8001c60:	6881      	ldr	r1, [r0, #8]
 8001c62:	f001 4570 	and.w	r5, r1, #4026531840	; 0xf0000000
 8001c66:	60c2      	str	r2, [r0, #12]
 8001c68:	ea45 3503 	orr.w	r5, r5, r3, lsl #12
 8001c6c:	ea45 5404 	orr.w	r4, r5, r4, lsl #20
 8001c70:	6084      	str	r4, [r0, #8]
 8001c72:	e7dd      	b.n	8001c30 <FMC_SDRAM_Timing_Init+0x4c>

08001c74 <FMC_SDRAM_SendCommand>:
 8001c74:	2300      	movs	r3, #0
 8001c76:	b573      	push	{r0, r1, r4, r5, r6, lr}
 8001c78:	4615      	mov	r5, r2
 8001c7a:	9301      	str	r3, [sp, #4]
 8001c7c:	4604      	mov	r4, r0
 8001c7e:	e891 000c 	ldmia.w	r1, {r2, r3}
 8001c82:	4313      	orrs	r3, r2
 8001c84:	68ca      	ldr	r2, [r1, #12]
 8001c86:	ea43 2342 	orr.w	r3, r3, r2, lsl #9
 8001c8a:	688a      	ldr	r2, [r1, #8]
 8001c8c:	3a01      	subs	r2, #1
 8001c8e:	ea43 1342 	orr.w	r3, r3, r2, lsl #5
 8001c92:	9301      	str	r3, [sp, #4]
 8001c94:	9b01      	ldr	r3, [sp, #4]
 8001c96:	6103      	str	r3, [r0, #16]
 8001c98:	f7fe fd3c 	bl	8000714 <HAL_GetTick>
 8001c9c:	4606      	mov	r6, r0
 8001c9e:	69a0      	ldr	r0, [r4, #24]
 8001ca0:	f010 0020 	ands.w	r0, r0, #32
 8001ca4:	d003      	beq.n	8001cae <FMC_SDRAM_SendCommand+0x3a>
 8001ca6:	1c6b      	adds	r3, r5, #1
 8001ca8:	d0f9      	beq.n	8001c9e <FMC_SDRAM_SendCommand+0x2a>
 8001caa:	b915      	cbnz	r5, 8001cb2 <FMC_SDRAM_SendCommand+0x3e>
 8001cac:	2003      	movs	r0, #3
 8001cae:	b002      	add	sp, #8
 8001cb0:	bd70      	pop	{r4, r5, r6, pc}
 8001cb2:	f7fe fd2f 	bl	8000714 <HAL_GetTick>
 8001cb6:	1b80      	subs	r0, r0, r6
 8001cb8:	4285      	cmp	r5, r0
 8001cba:	d2f0      	bcs.n	8001c9e <FMC_SDRAM_SendCommand+0x2a>
 8001cbc:	e7f6      	b.n	8001cac <FMC_SDRAM_SendCommand+0x38>

08001cbe <FMC_SDRAM_ProgramRefreshRate>:
 8001cbe:	6943      	ldr	r3, [r0, #20]
 8001cc0:	ea43 0141 	orr.w	r1, r3, r1, lsl #1
 8001cc4:	6141      	str	r1, [r0, #20]
 8001cc6:	2000      	movs	r0, #0
 8001cc8:	4770      	bx	lr

08001cca <LTDC_SetConfig>:
 8001cca:	01d2      	lsls	r2, r2, #7
 8001ccc:	f04f 0c00 	mov.w	ip, #0
 8001cd0:	e92d 43f0 	stmdb	sp!, {r4, r5, r6, r7, r8, r9, lr}
 8001cd4:	3284      	adds	r2, #132	; 0x84
 8001cd6:	6804      	ldr	r4, [r0, #0]
 8001cd8:	684f      	ldr	r7, [r1, #4]
 8001cda:	18a3      	adds	r3, r4, r2
 8001cdc:	68e5      	ldr	r5, [r4, #12]
 8001cde:	f8d1 e000 	ldr.w	lr, [r1]
 8001ce2:	6858      	ldr	r0, [r3, #4]
 8001ce4:	f3c5 450b 	ubfx	r5, r5, #16, #12
 8001ce8:	f10e 0601 	add.w	r6, lr, #1
 8001cec:	f8d1 9018 	ldr.w	r9, [r1, #24]
 8001cf0:	f400 4070 	and.w	r0, r0, #61440	; 0xf000
 8001cf4:	443d      	add	r5, r7
 8001cf6:	6058      	str	r0, [r3, #4]
 8001cf8:	68e0      	ldr	r0, [r4, #12]
 8001cfa:	f3c0 400b 	ubfx	r0, r0, #16, #12
 8001cfe:	4430      	add	r0, r6
 8001d00:	ea40 4005 	orr.w	r0, r0, r5, lsl #16
 8001d04:	68cd      	ldr	r5, [r1, #12]
 8001d06:	6058      	str	r0, [r3, #4]
 8001d08:	68e0      	ldr	r0, [r4, #12]
 8001d0a:	f3c0 000a 	ubfx	r0, r0, #0, #11
 8001d0e:	4405      	add	r5, r0
 8001d10:	6898      	ldr	r0, [r3, #8]
 8001d12:	f400 4070 	and.w	r0, r0, #61440	; 0xf000
 8001d16:	6098      	str	r0, [r3, #8]
 8001d18:	6888      	ldr	r0, [r1, #8]
 8001d1a:	68e6      	ldr	r6, [r4, #12]
 8001d1c:	3001      	adds	r0, #1
 8001d1e:	f3c6 060a 	ubfx	r6, r6, #0, #11
 8001d22:	4430      	add	r0, r6
 8001d24:	690e      	ldr	r6, [r1, #16]
 8001d26:	ea40 4005 	orr.w	r0, r0, r5, lsl #16
 8001d2a:	6098      	str	r0, [r3, #8]
 8001d2c:	6918      	ldr	r0, [r3, #16]
 8001d2e:	f020 0007 	bic.w	r0, r0, #7
 8001d32:	6118      	str	r0, [r3, #16]
 8001d34:	611e      	str	r6, [r3, #16]
 8001d36:	699d      	ldr	r5, [r3, #24]
 8001d38:	f891 0032 	ldrb.w	r0, [r1, #50]	; 0x32
 8001d3c:	f891 8031 	ldrb.w	r8, [r1, #49]	; 0x31
 8001d40:	f8c3 c018 	str.w	ip, [r3, #24]
 8001d44:	f891 5030 	ldrb.w	r5, [r1, #48]	; 0x30
 8001d48:	ea45 6509 	orr.w	r5, r5, r9, lsl #24
 8001d4c:	ea45 2508 	orr.w	r5, r5, r8, lsl #8
 8001d50:	ea45 4500 	orr.w	r5, r5, r0, lsl #16
 8001d54:	619d      	str	r5, [r3, #24]
 8001d56:	6958      	ldr	r0, [r3, #20]
 8001d58:	f020 00ff 	bic.w	r0, r0, #255	; 0xff
 8001d5c:	6158      	str	r0, [r3, #20]
 8001d5e:	6948      	ldr	r0, [r1, #20]
 8001d60:	6158      	str	r0, [r3, #20]
 8001d62:	69d8      	ldr	r0, [r3, #28]
 8001d64:	f420 60e0 	bic.w	r0, r0, #1792	; 0x700
 8001d68:	f020 0007 	bic.w	r0, r0, #7
 8001d6c:	61d8      	str	r0, [r3, #28]
 8001d6e:	6a08      	ldr	r0, [r1, #32]
 8001d70:	69cd      	ldr	r5, [r1, #28]
 8001d72:	4305      	orrs	r5, r0
 8001d74:	61dd      	str	r5, [r3, #28]
 8001d76:	6a98      	ldr	r0, [r3, #40]	; 0x28
 8001d78:	6a48      	ldr	r0, [r1, #36]	; 0x24
 8001d7a:	f8c3 c028 	str.w	ip, [r3, #40]	; 0x28
 8001d7e:	6298      	str	r0, [r3, #40]	; 0x28
 8001d80:	b31e      	cbz	r6, 8001dca <LTDC_SetConfig+0x100>
 8001d82:	2e01      	cmp	r6, #1
 8001d84:	d023      	beq.n	8001dce <LTDC_SetConfig+0x104>
 8001d86:	1eb0      	subs	r0, r6, #2
 8001d88:	2802      	cmp	r0, #2
 8001d8a:	d922      	bls.n	8001dd2 <LTDC_SetConfig+0x108>
 8001d8c:	2e07      	cmp	r6, #7
 8001d8e:	bf0c      	ite	eq
 8001d90:	2002      	moveq	r0, #2
 8001d92:	2001      	movne	r0, #1
 8001d94:	6add      	ldr	r5, [r3, #44]	; 0x2c
 8001d96:	eba7 070e 	sub.w	r7, r7, lr
 8001d9a:	f005 25e0 	and.w	r5, r5, #3758153728	; 0xe000e000
 8001d9e:	62dd      	str	r5, [r3, #44]	; 0x2c
 8001da0:	6a8d      	ldr	r5, [r1, #40]	; 0x28
 8001da2:	6ac9      	ldr	r1, [r1, #44]	; 0x2c
 8001da4:	4345      	muls	r5, r0
 8001da6:	4378      	muls	r0, r7
 8001da8:	3003      	adds	r0, #3
 8001daa:	ea40 4005 	orr.w	r0, r0, r5, lsl #16
 8001dae:	62d8      	str	r0, [r3, #44]	; 0x2c
 8001db0:	6b18      	ldr	r0, [r3, #48]	; 0x30
 8001db2:	f420 60ff 	bic.w	r0, r0, #2040	; 0x7f8
 8001db6:	f020 0007 	bic.w	r0, r0, #7
 8001dba:	6318      	str	r0, [r3, #48]	; 0x30
 8001dbc:	6319      	str	r1, [r3, #48]	; 0x30
 8001dbe:	58a3      	ldr	r3, [r4, r2]
 8001dc0:	f043 0301 	orr.w	r3, r3, #1
 8001dc4:	50a3      	str	r3, [r4, r2]
 8001dc6:	e8bd 83f0 	ldmia.w	sp!, {r4, r5, r6, r7, r8, r9, pc}
 8001dca:	2004      	movs	r0, #4
 8001dcc:	e7e2      	b.n	8001d94 <LTDC_SetConfig+0xca>
 8001dce:	2003      	movs	r0, #3
 8001dd0:	e7e0      	b.n	8001d94 <LTDC_SetConfig+0xca>
 8001dd2:	2002      	movs	r0, #2
 8001dd4:	e7de      	b.n	8001d94 <LTDC_SetConfig+0xca>

08001dd6 <HAL_LTDC_MspInit>:
 8001dd6:	4770      	bx	lr

08001dd8 <HAL_LTDC_Init>:
 8001dd8:	b538      	push	{r3, r4, r5, lr}
 8001dda:	4604      	mov	r4, r0
 8001ddc:	2800      	cmp	r0, #0
 8001dde:	d067      	beq.n	8001eb0 <HAL_LTDC_Init+0xd8>
 8001de0:	f890 30a1 	ldrb.w	r3, [r0, #161]	; 0xa1
 8001de4:	f003 02ff 	and.w	r2, r3, #255	; 0xff
 8001de8:	b91b      	cbnz	r3, 8001df2 <HAL_LTDC_Init+0x1a>
 8001dea:	f880 20a0 	strb.w	r2, [r0, #160]	; 0xa0
 8001dee:	f7ff fff2 	bl	8001dd6 <HAL_LTDC_MspInit>
 8001df2:	2302      	movs	r3, #2
 8001df4:	68a0      	ldr	r0, [r4, #8]
 8001df6:	f884 30a1 	strb.w	r3, [r4, #161]	; 0xa1
 8001dfa:	6823      	ldr	r3, [r4, #0]
 8001dfc:	699a      	ldr	r2, [r3, #24]
 8001dfe:	f022 4270 	bic.w	r2, r2, #4026531840	; 0xf0000000
 8001e02:	619a      	str	r2, [r3, #24]
 8001e04:	6862      	ldr	r2, [r4, #4]
 8001e06:	6999      	ldr	r1, [r3, #24]
 8001e08:	4302      	orrs	r2, r0
 8001e0a:	68e0      	ldr	r0, [r4, #12]
 8001e0c:	4302      	orrs	r2, r0
 8001e0e:	6920      	ldr	r0, [r4, #16]
 8001e10:	4302      	orrs	r2, r0
 8001e12:	6960      	ldr	r0, [r4, #20]
 8001e14:	430a      	orrs	r2, r1
 8001e16:	4927      	ldr	r1, [pc, #156]	; (8001eb4 <HAL_LTDC_Init+0xdc>)
 8001e18:	619a      	str	r2, [r3, #24]
 8001e1a:	689a      	ldr	r2, [r3, #8]
 8001e1c:	400a      	ands	r2, r1
 8001e1e:	609a      	str	r2, [r3, #8]
 8001e20:	689a      	ldr	r2, [r3, #8]
 8001e22:	ea42 4200 	orr.w	r2, r2, r0, lsl #16
 8001e26:	69a0      	ldr	r0, [r4, #24]
 8001e28:	4302      	orrs	r2, r0
 8001e2a:	69e0      	ldr	r0, [r4, #28]
 8001e2c:	609a      	str	r2, [r3, #8]
 8001e2e:	68da      	ldr	r2, [r3, #12]
 8001e30:	400a      	ands	r2, r1
 8001e32:	60da      	str	r2, [r3, #12]
 8001e34:	68da      	ldr	r2, [r3, #12]
 8001e36:	ea42 4200 	orr.w	r2, r2, r0, lsl #16
 8001e3a:	6a20      	ldr	r0, [r4, #32]
 8001e3c:	4302      	orrs	r2, r0
 8001e3e:	6a60      	ldr	r0, [r4, #36]	; 0x24
 8001e40:	60da      	str	r2, [r3, #12]
 8001e42:	691a      	ldr	r2, [r3, #16]
 8001e44:	400a      	ands	r2, r1
 8001e46:	611a      	str	r2, [r3, #16]
 8001e48:	691a      	ldr	r2, [r3, #16]
 8001e4a:	ea42 4200 	orr.w	r2, r2, r0, lsl #16
 8001e4e:	6aa0      	ldr	r0, [r4, #40]	; 0x28
 8001e50:	4302      	orrs	r2, r0
 8001e52:	611a      	str	r2, [r3, #16]
 8001e54:	695a      	ldr	r2, [r3, #20]
 8001e56:	4011      	ands	r1, r2
 8001e58:	6159      	str	r1, [r3, #20]
 8001e5a:	6ae1      	ldr	r1, [r4, #44]	; 0x2c
 8001e5c:	695a      	ldr	r2, [r3, #20]
 8001e5e:	ea42 4201 	orr.w	r2, r2, r1, lsl #16
 8001e62:	6b21      	ldr	r1, [r4, #48]	; 0x30
 8001e64:	430a      	orrs	r2, r1
 8001e66:	615a      	str	r2, [r3, #20]
 8001e68:	6ad9      	ldr	r1, [r3, #44]	; 0x2c
 8001e6a:	f894 0036 	ldrb.w	r0, [r4, #54]	; 0x36
 8001e6e:	f001 417f 	and.w	r1, r1, #4278190080	; 0xff000000
 8001e72:	f894 5035 	ldrb.w	r5, [r4, #53]	; 0x35
 8001e76:	62d9      	str	r1, [r3, #44]	; 0x2c
 8001e78:	6ad9      	ldr	r1, [r3, #44]	; 0x2c
 8001e7a:	f894 2034 	ldrb.w	r2, [r4, #52]	; 0x34
 8001e7e:	430a      	orrs	r2, r1
 8001e80:	ea42 2205 	orr.w	r2, r2, r5, lsl #8
 8001e84:	ea42 4200 	orr.w	r2, r2, r0, lsl #16
 8001e88:	2000      	movs	r0, #0
 8001e8a:	62da      	str	r2, [r3, #44]	; 0x2c
 8001e8c:	6b5a      	ldr	r2, [r3, #52]	; 0x34
 8001e8e:	f042 0204 	orr.w	r2, r2, #4
 8001e92:	635a      	str	r2, [r3, #52]	; 0x34
 8001e94:	6b5a      	ldr	r2, [r3, #52]	; 0x34
 8001e96:	f042 0202 	orr.w	r2, r2, #2
 8001e9a:	635a      	str	r2, [r3, #52]	; 0x34
 8001e9c:	699a      	ldr	r2, [r3, #24]
 8001e9e:	f042 0201 	orr.w	r2, r2, #1
 8001ea2:	619a      	str	r2, [r3, #24]
 8001ea4:	2301      	movs	r3, #1
 8001ea6:	f8c4 00a4 	str.w	r0, [r4, #164]	; 0xa4
 8001eaa:	f884 30a1 	strb.w	r3, [r4, #161]	; 0xa1
 8001eae:	bd38      	pop	{r3, r4, r5, pc}
 8001eb0:	2001      	movs	r0, #1
 8001eb2:	bd38      	pop	{r3, r4, r5, pc}
 8001eb4:	f000f800 			; <UNDEFINED> instruction: 0xf000f800

08001eb8 <HAL_LTDC_ConfigLayer>:
 8001eb8:	b5f8      	push	{r3, r4, r5, r6, r7, lr}
 8001eba:	f890 30a0 	ldrb.w	r3, [r0, #160]	; 0xa0
 8001ebe:	4606      	mov	r6, r0
 8001ec0:	468e      	mov	lr, r1
 8001ec2:	4694      	mov	ip, r2
 8001ec4:	2b01      	cmp	r3, #1
 8001ec6:	f04f 0002 	mov.w	r0, #2
 8001eca:	d01d      	beq.n	8001f08 <HAL_LTDC_ConfigLayer+0x50>
 8001ecc:	2434      	movs	r4, #52	; 0x34
 8001ece:	460d      	mov	r5, r1
 8001ed0:	f886 00a1 	strb.w	r0, [r6, #161]	; 0xa1
 8001ed4:	2701      	movs	r7, #1
 8001ed6:	fb04 6402 	mla	r4, r4, r2, r6
 8001eda:	f886 70a0 	strb.w	r7, [r6, #160]	; 0xa0
 8001ede:	3438      	adds	r4, #56	; 0x38
 8001ee0:	cd0f      	ldmia	r5!, {r0, r1, r2, r3}
 8001ee2:	c40f      	stmia	r4!, {r0, r1, r2, r3}
 8001ee4:	cd0f      	ldmia	r5!, {r0, r1, r2, r3}
 8001ee6:	c40f      	stmia	r4!, {r0, r1, r2, r3}
 8001ee8:	cd0f      	ldmia	r5!, {r0, r1, r2, r3}
 8001eea:	c40f      	stmia	r4!, {r0, r1, r2, r3}
 8001eec:	682b      	ldr	r3, [r5, #0]
 8001eee:	4630      	mov	r0, r6
 8001ef0:	4662      	mov	r2, ip
 8001ef2:	4671      	mov	r1, lr
 8001ef4:	6023      	str	r3, [r4, #0]
 8001ef6:	f7ff fee8 	bl	8001cca <LTDC_SetConfig>
 8001efa:	6833      	ldr	r3, [r6, #0]
 8001efc:	2000      	movs	r0, #0
 8001efe:	625f      	str	r7, [r3, #36]	; 0x24
 8001f00:	f886 70a1 	strb.w	r7, [r6, #161]	; 0xa1
 8001f04:	f886 00a0 	strb.w	r0, [r6, #160]	; 0xa0
 8001f08:	bdf8      	pop	{r3, r4, r5, r6, r7, pc}

08001f0a <HAL_LTDC_SetAlpha>:
 8001f0a:	f890 30a0 	ldrb.w	r3, [r0, #160]	; 0xa0
 8001f0e:	2b01      	cmp	r3, #1
 8001f10:	f04f 0302 	mov.w	r3, #2
 8001f14:	b570      	push	{r4, r5, r6, lr}
 8001f16:	4604      	mov	r4, r0
 8001f18:	d015      	beq.n	8001f46 <HAL_LTDC_SetAlpha+0x3c>
 8001f1a:	f880 30a1 	strb.w	r3, [r0, #161]	; 0xa1
 8001f1e:	2334      	movs	r3, #52	; 0x34
 8001f20:	2501      	movs	r5, #1
 8001f22:	4353      	muls	r3, r2
 8001f24:	f880 50a0 	strb.w	r5, [r0, #160]	; 0xa0
 8001f28:	18c6      	adds	r6, r0, r3
 8001f2a:	64f1      	str	r1, [r6, #76]	; 0x4c
 8001f2c:	f103 0138 	add.w	r1, r3, #56	; 0x38
 8001f30:	4401      	add	r1, r0
 8001f32:	f7ff feca 	bl	8001cca <LTDC_SetConfig>
 8001f36:	6823      	ldr	r3, [r4, #0]
 8001f38:	2000      	movs	r0, #0
 8001f3a:	625d      	str	r5, [r3, #36]	; 0x24
 8001f3c:	f884 50a1 	strb.w	r5, [r4, #161]	; 0xa1
 8001f40:	f884 00a0 	strb.w	r0, [r4, #160]	; 0xa0
 8001f44:	bd70      	pop	{r4, r5, r6, pc}
 8001f46:	4618      	mov	r0, r3
 8001f48:	bd70      	pop	{r4, r5, r6, pc}

08001f4a <HAL_LTDC_GetState>:
 8001f4a:	f890 00a1 	ldrb.w	r0, [r0, #161]	; 0xa1
 8001f4e:	4770      	bx	lr

08001f50 <HAL_TIM_Base_MspInit>:
 8001f50:	4770      	bx	lr

08001f52 <HAL_TIM_Base_Start_IT>:
 8001f52:	6803      	ldr	r3, [r0, #0]
 8001f54:	2000      	movs	r0, #0
 8001f56:	68da      	ldr	r2, [r3, #12]
 8001f58:	f042 0201 	orr.w	r2, r2, #1
 8001f5c:	60da      	str	r2, [r3, #12]
 8001f5e:	681a      	ldr	r2, [r3, #0]
 8001f60:	f042 0201 	orr.w	r2, r2, #1
 8001f64:	601a      	str	r2, [r3, #0]
 8001f66:	4770      	bx	lr

08001f68 <TIM_Base_SetConfig>:
 8001f68:	4a2e      	ldr	r2, [pc, #184]	; (8002024 <TIM_Base_SetConfig+0xbc>)
 8001f6a:	6803      	ldr	r3, [r0, #0]
 8001f6c:	4290      	cmp	r0, r2
 8001f6e:	d012      	beq.n	8001f96 <TIM_Base_SetConfig+0x2e>
 8001f70:	f1b0 4f80 	cmp.w	r0, #1073741824	; 0x40000000
 8001f74:	d00f      	beq.n	8001f96 <TIM_Base_SetConfig+0x2e>
 8001f76:	f5a2 427c 	sub.w	r2, r2, #64512	; 0xfc00
 8001f7a:	4290      	cmp	r0, r2
 8001f7c:	d00b      	beq.n	8001f96 <TIM_Base_SetConfig+0x2e>
 8001f7e:	f502 6280 	add.w	r2, r2, #1024	; 0x400
 8001f82:	4290      	cmp	r0, r2
 8001f84:	d007      	beq.n	8001f96 <TIM_Base_SetConfig+0x2e>
 8001f86:	f502 6280 	add.w	r2, r2, #1024	; 0x400
 8001f8a:	4290      	cmp	r0, r2
 8001f8c:	d003      	beq.n	8001f96 <TIM_Base_SetConfig+0x2e>
 8001f8e:	f502 4278 	add.w	r2, r2, #63488	; 0xf800
 8001f92:	4290      	cmp	r0, r2
 8001f94:	d11d      	bne.n	8001fd2 <TIM_Base_SetConfig+0x6a>
 8001f96:	684a      	ldr	r2, [r1, #4]
 8001f98:	f023 0370 	bic.w	r3, r3, #112	; 0x70
 8001f9c:	4313      	orrs	r3, r2
 8001f9e:	4a21      	ldr	r2, [pc, #132]	; (8002024 <TIM_Base_SetConfig+0xbc>)
 8001fa0:	4290      	cmp	r0, r2
 8001fa2:	d104      	bne.n	8001fae <TIM_Base_SetConfig+0x46>
 8001fa4:	f423 7340 	bic.w	r3, r3, #768	; 0x300
 8001fa8:	68ca      	ldr	r2, [r1, #12]
 8001faa:	4313      	orrs	r3, r2
 8001fac:	e028      	b.n	8002000 <TIM_Base_SetConfig+0x98>
 8001fae:	f1b0 4f80 	cmp.w	r0, #1073741824	; 0x40000000
 8001fb2:	d0f7      	beq.n	8001fa4 <TIM_Base_SetConfig+0x3c>
 8001fb4:	4a1c      	ldr	r2, [pc, #112]	; (8002028 <TIM_Base_SetConfig+0xc0>)
 8001fb6:	4290      	cmp	r0, r2
 8001fb8:	d0f4      	beq.n	8001fa4 <TIM_Base_SetConfig+0x3c>
 8001fba:	f502 6280 	add.w	r2, r2, #1024	; 0x400
 8001fbe:	4290      	cmp	r0, r2
 8001fc0:	d0f0      	beq.n	8001fa4 <TIM_Base_SetConfig+0x3c>
 8001fc2:	f502 6280 	add.w	r2, r2, #1024	; 0x400
 8001fc6:	4290      	cmp	r0, r2
 8001fc8:	d0ec      	beq.n	8001fa4 <TIM_Base_SetConfig+0x3c>
 8001fca:	f502 4278 	add.w	r2, r2, #63488	; 0xf800
 8001fce:	4290      	cmp	r0, r2
 8001fd0:	d0e8      	beq.n	8001fa4 <TIM_Base_SetConfig+0x3c>
 8001fd2:	4a16      	ldr	r2, [pc, #88]	; (800202c <TIM_Base_SetConfig+0xc4>)
 8001fd4:	4290      	cmp	r0, r2
 8001fd6:	d0e5      	beq.n	8001fa4 <TIM_Base_SetConfig+0x3c>
 8001fd8:	f502 6280 	add.w	r2, r2, #1024	; 0x400
 8001fdc:	4290      	cmp	r0, r2
 8001fde:	d0e1      	beq.n	8001fa4 <TIM_Base_SetConfig+0x3c>
 8001fe0:	f502 6280 	add.w	r2, r2, #1024	; 0x400
 8001fe4:	4290      	cmp	r0, r2
 8001fe6:	d0dd      	beq.n	8001fa4 <TIM_Base_SetConfig+0x3c>
 8001fe8:	f5a2 3298 	sub.w	r2, r2, #77824	; 0x13000
 8001fec:	4290      	cmp	r0, r2
 8001fee:	d0d9      	beq.n	8001fa4 <TIM_Base_SetConfig+0x3c>
 8001ff0:	f502 6280 	add.w	r2, r2, #1024	; 0x400
 8001ff4:	4290      	cmp	r0, r2
 8001ff6:	d0d5      	beq.n	8001fa4 <TIM_Base_SetConfig+0x3c>
 8001ff8:	f502 6280 	add.w	r2, r2, #1024	; 0x400
 8001ffc:	4290      	cmp	r0, r2
 8001ffe:	d0d1      	beq.n	8001fa4 <TIM_Base_SetConfig+0x3c>
 8002000:	6003      	str	r3, [r0, #0]
 8002002:	688b      	ldr	r3, [r1, #8]
 8002004:	62c3      	str	r3, [r0, #44]	; 0x2c
 8002006:	680b      	ldr	r3, [r1, #0]
 8002008:	6283      	str	r3, [r0, #40]	; 0x28
 800200a:	4b06      	ldr	r3, [pc, #24]	; (8002024 <TIM_Base_SetConfig+0xbc>)
 800200c:	4298      	cmp	r0, r3
 800200e:	d006      	beq.n	800201e <TIM_Base_SetConfig+0xb6>
 8002010:	f503 6380 	add.w	r3, r3, #1024	; 0x400
 8002014:	4298      	cmp	r0, r3
 8002016:	d002      	beq.n	800201e <TIM_Base_SetConfig+0xb6>
 8002018:	2301      	movs	r3, #1
 800201a:	6143      	str	r3, [r0, #20]
 800201c:	4770      	bx	lr
 800201e:	690b      	ldr	r3, [r1, #16]
 8002020:	6303      	str	r3, [r0, #48]	; 0x30
 8002022:	e7f9      	b.n	8002018 <TIM_Base_SetConfig+0xb0>
 8002024:	40010000 	andmi	r0, r1, r0
 8002028:	40000400 	andmi	r0, r0, r0, lsl #8
 800202c:	40014000 	andmi	r4, r1, r0

08002030 <HAL_TIM_Base_Init>:
 8002030:	b510      	push	{r4, lr}
 8002032:	4604      	mov	r4, r0
 8002034:	b180      	cbz	r0, 8002058 <HAL_TIM_Base_Init+0x28>
 8002036:	f890 3039 	ldrb.w	r3, [r0, #57]	; 0x39
 800203a:	b90b      	cbnz	r3, 8002040 <HAL_TIM_Base_Init+0x10>
 800203c:	f7ff ff88 	bl	8001f50 <HAL_TIM_Base_MspInit>
 8002040:	2302      	movs	r3, #2
 8002042:	6820      	ldr	r0, [r4, #0]
 8002044:	1d21      	adds	r1, r4, #4
 8002046:	f884 3039 	strb.w	r3, [r4, #57]	; 0x39
 800204a:	f7ff ff8d 	bl	8001f68 <TIM_Base_SetConfig>
 800204e:	2301      	movs	r3, #1
 8002050:	2000      	movs	r0, #0
 8002052:	f884 3039 	strb.w	r3, [r4, #57]	; 0x39
 8002056:	bd10      	pop	{r4, pc}
 8002058:	2001      	movs	r0, #1
 800205a:	bd10      	pop	{r4, pc}

0800205c <HAL_MspInit>:
 800205c:	4770      	bx	lr
 800205e:	0000      	movs	r0, r0

08002060 <HAL_GPIO_Init>:
 8002060:	e92d 4ff0 	stmdb	sp!, {r4, r5, r6, r7, r8, r9, sl, fp, lr}
 8002064:	680b      	ldr	r3, [r1, #0]
 8002066:	b085      	sub	sp, #20
 8002068:	f8df 81c8 	ldr.w	r8, [pc, #456]	; 8002234 <HAL_GPIO_Init+0x1d4>
 800206c:	9301      	str	r3, [sp, #4]
 800206e:	2300      	movs	r3, #0
 8002070:	4a6e      	ldr	r2, [pc, #440]	; (800222c <HAL_GPIO_Init+0x1cc>)
 8002072:	f8df 91c4 	ldr.w	r9, [pc, #452]	; 8002238 <HAL_GPIO_Init+0x1d8>
 8002076:	f04f 0e01 	mov.w	lr, #1
 800207a:	9c01      	ldr	r4, [sp, #4]
 800207c:	fa0e fe03 	lsl.w	lr, lr, r3
 8002080:	ea0e 0604 	and.w	r6, lr, r4
 8002084:	45b6      	cmp	lr, r6
 8002086:	f040 80b7 	bne.w	80021f8 <HAL_GPIO_Init+0x198>
 800208a:	684c      	ldr	r4, [r1, #4]
 800208c:	f024 0710 	bic.w	r7, r4, #16
 8002090:	2f02      	cmp	r7, #2
 8002092:	d116      	bne.n	80020c2 <HAL_GPIO_Init+0x62>
 8002094:	ea4f 0ad3 	mov.w	sl, r3, lsr #3
 8002098:	f003 0b07 	and.w	fp, r3, #7
 800209c:	f04f 0c0f 	mov.w	ip, #15
 80020a0:	eb00 0a8a 	add.w	sl, r0, sl, lsl #2
 80020a4:	ea4f 0b8b 	mov.w	fp, fp, lsl #2
 80020a8:	f8da 5020 	ldr.w	r5, [sl, #32]
 80020ac:	fa0c fc0b 	lsl.w	ip, ip, fp
 80020b0:	ea25 0c0c 	bic.w	ip, r5, ip
 80020b4:	690d      	ldr	r5, [r1, #16]
 80020b6:	fa05 f50b 	lsl.w	r5, r5, fp
 80020ba:	ea45 050c 	orr.w	r5, r5, ip
 80020be:	f8ca 5020 	str.w	r5, [sl, #32]
 80020c2:	ea4f 0a43 	mov.w	sl, r3, lsl #1
 80020c6:	2503      	movs	r5, #3
 80020c8:	f8d0 b000 	ldr.w	fp, [r0]
 80020cc:	f004 0c03 	and.w	ip, r4, #3
 80020d0:	fa05 f50a 	lsl.w	r5, r5, sl
 80020d4:	3f01      	subs	r7, #1
 80020d6:	fa0c fc0a 	lsl.w	ip, ip, sl
 80020da:	43ed      	mvns	r5, r5
 80020dc:	2f01      	cmp	r7, #1
 80020de:	ea0b 0b05 	and.w	fp, fp, r5
 80020e2:	ea4c 0c0b 	orr.w	ip, ip, fp
 80020e6:	f8c0 c000 	str.w	ip, [r0]
 80020ea:	d811      	bhi.n	8002110 <HAL_GPIO_Init+0xb0>
 80020ec:	6887      	ldr	r7, [r0, #8]
 80020ee:	ea07 0b05 	and.w	fp, r7, r5
 80020f2:	68cf      	ldr	r7, [r1, #12]
 80020f4:	fa07 fc0a 	lsl.w	ip, r7, sl
 80020f8:	ea4c 070b 	orr.w	r7, ip, fp
 80020fc:	6087      	str	r7, [r0, #8]
 80020fe:	6847      	ldr	r7, [r0, #4]
 8002100:	ea27 0e0e 	bic.w	lr, r7, lr
 8002104:	f3c4 1700 	ubfx	r7, r4, #4, #1
 8002108:	409f      	lsls	r7, r3
 800210a:	ea47 070e 	orr.w	r7, r7, lr
 800210e:	6047      	str	r7, [r0, #4]
 8002110:	68c7      	ldr	r7, [r0, #12]
 8002112:	403d      	ands	r5, r7
 8002114:	688f      	ldr	r7, [r1, #8]
 8002116:	fa07 f70a 	lsl.w	r7, r7, sl
 800211a:	433d      	orrs	r5, r7
 800211c:	60c5      	str	r5, [r0, #12]
 800211e:	00e5      	lsls	r5, r4, #3
 8002120:	d56a      	bpl.n	80021f8 <HAL_GPIO_Init+0x198>
 8002122:	f04f 0b00 	mov.w	fp, #0
 8002126:	f003 0c03 	and.w	ip, r3, #3
 800212a:	f04f 0e0f 	mov.w	lr, #15
 800212e:	4d40      	ldr	r5, [pc, #256]	; (8002230 <HAL_GPIO_Init+0x1d0>)
 8002130:	f8cd b00c 	str.w	fp, [sp, #12]
 8002134:	ea4f 0c8c 	mov.w	ip, ip, lsl #2
 8002138:	f8d8 7044 	ldr.w	r7, [r8, #68]	; 0x44
 800213c:	42a8      	cmp	r0, r5
 800213e:	fa0e fe0c 	lsl.w	lr, lr, ip
 8002142:	f447 4780 	orr.w	r7, r7, #16384	; 0x4000
 8002146:	f8c8 7044 	str.w	r7, [r8, #68]	; 0x44
 800214a:	f8d8 7044 	ldr.w	r7, [r8, #68]	; 0x44
 800214e:	f407 4780 	and.w	r7, r7, #16384	; 0x4000
 8002152:	9703      	str	r7, [sp, #12]
 8002154:	9f03      	ldr	r7, [sp, #12]
 8002156:	f023 0703 	bic.w	r7, r3, #3
 800215a:	f107 4780 	add.w	r7, r7, #1073741824	; 0x40000000
 800215e:	f507 379c 	add.w	r7, r7, #79872	; 0x13800
 8002162:	f8d7 a008 	ldr.w	sl, [r7, #8]
 8002166:	ea2a 0e0e 	bic.w	lr, sl, lr
 800216a:	d04c      	beq.n	8002206 <HAL_GPIO_Init+0x1a6>
 800216c:	f505 6580 	add.w	r5, r5, #1024	; 0x400
 8002170:	42a8      	cmp	r0, r5
 8002172:	d04a      	beq.n	800220a <HAL_GPIO_Init+0x1aa>
 8002174:	f505 6580 	add.w	r5, r5, #1024	; 0x400
 8002178:	42a8      	cmp	r0, r5
 800217a:	d048      	beq.n	800220e <HAL_GPIO_Init+0x1ae>
 800217c:	f505 6580 	add.w	r5, r5, #1024	; 0x400
 8002180:	42a8      	cmp	r0, r5
 8002182:	d046      	beq.n	8002212 <HAL_GPIO_Init+0x1b2>
 8002184:	f505 6580 	add.w	r5, r5, #1024	; 0x400
 8002188:	42a8      	cmp	r0, r5
 800218a:	d044      	beq.n	8002216 <HAL_GPIO_Init+0x1b6>
 800218c:	4548      	cmp	r0, r9
 800218e:	d044      	beq.n	800221a <HAL_GPIO_Init+0x1ba>
 8002190:	f505 6500 	add.w	r5, r5, #2048	; 0x800
 8002194:	42a8      	cmp	r0, r5
 8002196:	d042      	beq.n	800221e <HAL_GPIO_Init+0x1be>
 8002198:	f505 6580 	add.w	r5, r5, #1024	; 0x400
 800219c:	42a8      	cmp	r0, r5
 800219e:	d040      	beq.n	8002222 <HAL_GPIO_Init+0x1c2>
 80021a0:	f505 6580 	add.w	r5, r5, #1024	; 0x400
 80021a4:	42a8      	cmp	r0, r5
 80021a6:	d03e      	beq.n	8002226 <HAL_GPIO_Init+0x1c6>
 80021a8:	f505 6580 	add.w	r5, r5, #1024	; 0x400
 80021ac:	42a8      	cmp	r0, r5
 80021ae:	bf14      	ite	ne
 80021b0:	250a      	movne	r5, #10
 80021b2:	2509      	moveq	r5, #9
 80021b4:	fa05 f50c 	lsl.w	r5, r5, ip
 80021b8:	f414 3f80 	tst.w	r4, #65536	; 0x10000
 80021bc:	ea45 050e 	orr.w	r5, r5, lr
 80021c0:	60bd      	str	r5, [r7, #8]
 80021c2:	ea6f 0706 	mvn.w	r7, r6
 80021c6:	6815      	ldr	r5, [r2, #0]
 80021c8:	bf0c      	ite	eq
 80021ca:	403d      	andeq	r5, r7
 80021cc:	4335      	orrne	r5, r6
 80021ce:	f414 3f00 	tst.w	r4, #131072	; 0x20000
 80021d2:	6015      	str	r5, [r2, #0]
 80021d4:	6855      	ldr	r5, [r2, #4]
 80021d6:	bf0c      	ite	eq
 80021d8:	403d      	andeq	r5, r7
 80021da:	4335      	orrne	r5, r6
 80021dc:	f414 1f80 	tst.w	r4, #1048576	; 0x100000
 80021e0:	6055      	str	r5, [r2, #4]
 80021e2:	6895      	ldr	r5, [r2, #8]
 80021e4:	bf0c      	ite	eq
 80021e6:	403d      	andeq	r5, r7
 80021e8:	4335      	orrne	r5, r6
 80021ea:	02a4      	lsls	r4, r4, #10
 80021ec:	6095      	str	r5, [r2, #8]
 80021ee:	68d5      	ldr	r5, [r2, #12]
 80021f0:	bf54      	ite	pl
 80021f2:	403d      	andpl	r5, r7
 80021f4:	4335      	orrmi	r5, r6
 80021f6:	60d5      	str	r5, [r2, #12]
 80021f8:	3301      	adds	r3, #1
 80021fa:	2b10      	cmp	r3, #16
 80021fc:	f47f af3b 	bne.w	8002076 <HAL_GPIO_Init+0x16>
 8002200:	b005      	add	sp, #20
 8002202:	e8bd 8ff0 	ldmia.w	sp!, {r4, r5, r6, r7, r8, r9, sl, fp, pc}
 8002206:	465d      	mov	r5, fp
 8002208:	e7d4      	b.n	80021b4 <HAL_GPIO_Init+0x154>
 800220a:	2501      	movs	r5, #1
 800220c:	e7d2      	b.n	80021b4 <HAL_GPIO_Init+0x154>
 800220e:	2502      	movs	r5, #2
 8002210:	e7d0      	b.n	80021b4 <HAL_GPIO_Init+0x154>
 8002212:	2503      	movs	r5, #3
 8002214:	e7ce      	b.n	80021b4 <HAL_GPIO_Init+0x154>
 8002216:	2504      	movs	r5, #4
 8002218:	e7cc      	b.n	80021b4 <HAL_GPIO_Init+0x154>
 800221a:	2505      	movs	r5, #5
 800221c:	e7ca      	b.n	80021b4 <HAL_GPIO_Init+0x154>
 800221e:	2506      	movs	r5, #6
 8002220:	e7c8      	b.n	80021b4 <HAL_GPIO_Init+0x154>
 8002222:	2507      	movs	r5, #7
 8002224:	e7c6      	b.n	80021b4 <HAL_GPIO_Init+0x154>
 8002226:	2508      	movs	r5, #8
 8002228:	e7c4      	b.n	80021b4 <HAL_GPIO_Init+0x154>
 800222a:	bf00      	nop
 800222c:	40013c00 	andmi	r3, r1, r0, lsl #24
 8002230:	40020000 	andmi	r0, r2, r0
 8002234:	40023800 	andmi	r3, r2, r0, lsl #16
 8002238:	40021400 	andmi	r1, r2, r0, lsl #8

0800223c <HAL_GPIO_WritePin>:
 800223c:	b10a      	cbz	r2, 8002242 <HAL_GPIO_WritePin+0x6>
 800223e:	6181      	str	r1, [r0, #24]
 8002240:	4770      	bx	lr
 8002242:	0409      	lsls	r1, r1, #16
 8002244:	e7fb      	b.n	800223e <HAL_GPIO_WritePin+0x2>

08002246 <_ZN3MemD1Ev>:
 8002246:	4770      	bx	lr

08002248 <_ZN3Mem4initEv>:
 8002248:	4b01      	ldr	r3, [pc, #4]	; (8002250 <_ZN3Mem4initEv+0x8>)
 800224a:	6003      	str	r3, [r0, #0]
 800224c:	4770      	bx	lr
 800224e:	bf00      	nop
 8002250:	20000ab8 			; <UNDEFINED> instruction: 0x20000ab8

08002254 <_ZN3Mem5printEv>:
 8002254:	b510      	push	{r4, lr}
 8002256:	4c06      	ldr	r4, [pc, #24]	; (8002270 <_ZN3Mem5printEv+0x1c>)
 8002258:	6803      	ldr	r3, [r0, #0]
 800225a:	4906      	ldr	r1, [pc, #24]	; (8002274 <_ZN3Mem5printEv+0x20>)
 800225c:	4620      	mov	r0, r4
 800225e:	4a06      	ldr	r2, [pc, #24]	; (8002278 <_ZN3Mem5printEv+0x24>)
 8002260:	f000 f9e5 	bl	800262e <_ZN8Terminal6printfEPKcz>
 8002264:	4620      	mov	r0, r4
 8002266:	4905      	ldr	r1, [pc, #20]	; (800227c <_ZN3Mem5printEv+0x28>)
 8002268:	e8bd 4010 	ldmia.w	sp!, {r4, lr}
 800226c:	f000 b9df 	b.w	800262e <_ZN8Terminal6printfEPKcz>
 8002270:	20000904 	andcs	r0, r0, r4, lsl #18
 8002274:	080048e9 	stmdaeq	r0, {r0, r3, r5, r6, r7, fp, lr}
 8002278:	20000ab8 			; <UNDEFINED> instruction: 0x20000ab8
 800227c:	08023a92 	stmdaeq	r2, {r1, r4, r7, r9, fp, ip, sp}

08002280 <_Znwj>:
 8002280:	4a02      	ldr	r2, [pc, #8]	; (800228c <_Znwj+0xc>)
 8002282:	6813      	ldr	r3, [r2, #0]
 8002284:	4418      	add	r0, r3
 8002286:	6010      	str	r0, [r2, #0]
 8002288:	4618      	mov	r0, r3
 800228a:	4770      	bx	lr
 800228c:	20000678 	andcs	r0, r0, r8, ror r6

08002290 <_ZdlPv>:
 8002290:	4770      	bx	lr
 8002292:	0000      	movs	r0, r0

08002294 <_Znaj>:
 8002294:	4a02      	ldr	r2, [pc, #8]	; (80022a0 <_Znaj+0xc>)
 8002296:	6813      	ldr	r3, [r2, #0]
 8002298:	4418      	add	r0, r3
 800229a:	6010      	str	r0, [r2, #0]
 800229c:	4618      	mov	r0, r3
 800229e:	4770      	bx	lr
 80022a0:	20000678 	andcs	r0, r0, r8, ror r6

080022a4 <_ZdaPv>:
 80022a4:	4770      	bx	lr
 80022a6:	0000      	movs	r0, r0

080022a8 <_GLOBAL__sub_I_mem>:
 80022a8:	4803      	ldr	r0, [pc, #12]	; (80022b8 <_GLOBAL__sub_I_mem+0x10>)
 80022aa:	4b04      	ldr	r3, [pc, #16]	; (80022bc <_GLOBAL__sub_I_mem+0x14>)
 80022ac:	4a04      	ldr	r2, [pc, #16]	; (80022c0 <_GLOBAL__sub_I_mem+0x18>)
 80022ae:	4905      	ldr	r1, [pc, #20]	; (80022c4 <_GLOBAL__sub_I_mem+0x1c>)
 80022b0:	6003      	str	r3, [r0, #0]
 80022b2:	f002 bacd 	b.w	8004850 <__aeabi_atexit>
 80022b6:	bf00      	nop
 80022b8:	20000678 	andcs	r0, r0, r8, ror r6
 80022bc:	20000ab8 			; <UNDEFINED> instruction: 0x20000ab8
 80022c0:	20000000 	andcs	r0, r0, r0
 80022c4:	08002247 	stmdaeq	r0, {r0, r1, r2, r6, r9, sp}

080022c8 <_ZN5TimerD1Ev>:
 80022c8:	4770      	bx	lr
 80022ca:	0000      	movs	r0, r0

080022cc <_ZN5Timer8get_timeEv>:
 80022cc:	b082      	sub	sp, #8
 80022ce:	b672      	cpsid	i
 80022d0:	4b03      	ldr	r3, [pc, #12]	; (80022e0 <_ZN5Timer8get_timeEv+0x14>)
 80022d2:	681b      	ldr	r3, [r3, #0]
 80022d4:	9301      	str	r3, [sp, #4]
 80022d6:	b662      	cpsie	i
 80022d8:	9801      	ldr	r0, [sp, #4]
 80022da:	b002      	add	sp, #8
 80022dc:	4770      	bx	lr
 80022de:	bf00      	nop
 80022e0:	2000067c 	andcs	r0, r0, ip, ror r6

080022e4 <_ZN5Timer8delay_msEj>:
 80022e4:	b507      	push	{r0, r1, r2, lr}
 80022e6:	4602      	mov	r2, r0
 80022e8:	f7ff fff0 	bl	80022cc <_ZN5Timer8get_timeEv>
 80022ec:	4401      	add	r1, r0
 80022ee:	9101      	str	r1, [sp, #4]
 80022f0:	4610      	mov	r0, r2
 80022f2:	f7ff ffeb 	bl	80022cc <_ZN5Timer8get_timeEv>
 80022f6:	9b01      	ldr	r3, [sp, #4]
 80022f8:	4298      	cmp	r0, r3
 80022fa:	d201      	bcs.n	8002300 <_ZN5Timer8delay_msEj+0x1c>
 80022fc:	bf00      	nop
 80022fe:	e7f7      	b.n	80022f0 <_ZN5Timer8delay_msEj+0xc>
 8002300:	b003      	add	sp, #12
 8002302:	f85d fb04 	ldr.w	pc, [sp], #4
 8002306:	0000      	movs	r0, r0

08002308 <TIM2_IRQHandler>:
 8002308:	b5f8      	push	{r3, r4, r5, r6, r7, lr}
 800230a:	f04f 4380 	mov.w	r3, #1073741824	; 0x40000000
 800230e:	691a      	ldr	r2, [r3, #16]
 8002310:	07d2      	lsls	r2, r2, #31
 8002312:	d514      	bpl.n	800233e <TIM2_IRQHandler+0x36>
 8002314:	4f19      	ldr	r7, [pc, #100]	; (800237c <TIM2_IRQHandler+0x74>)
 8002316:	f64f 72fe 	movw	r2, #65534	; 0xfffe
 800231a:	2400      	movs	r4, #0
 800231c:	2614      	movs	r6, #20
 800231e:	463d      	mov	r5, r7
 8002320:	611a      	str	r2, [r3, #16]
 8002322:	fb06 7304 	mla	r3, r6, r4, r7
 8002326:	68da      	ldr	r2, [r3, #12]
 8002328:	b152      	cbz	r2, 8002340 <TIM2_IRQHandler+0x38>
 800232a:	68da      	ldr	r2, [r3, #12]
 800232c:	3a01      	subs	r2, #1
 800232e:	60da      	str	r2, [r3, #12]
 8002330:	3401      	adds	r4, #1
 8002332:	2c20      	cmp	r4, #32
 8002334:	d1f5      	bne.n	8002322 <TIM2_IRQHandler+0x1a>
 8002336:	4a12      	ldr	r2, [pc, #72]	; (8002380 <TIM2_IRQHandler+0x78>)
 8002338:	6813      	ldr	r3, [r2, #0]
 800233a:	3301      	adds	r3, #1
 800233c:	6013      	str	r3, [r2, #0]
 800233e:	bdf8      	pop	{r3, r4, r5, r6, r7, pc}
 8002340:	689a      	ldr	r2, [r3, #8]
 8002342:	60da      	str	r2, [r3, #12]
 8002344:	7c1a      	ldrb	r2, [r3, #16]
 8002346:	2aff      	cmp	r2, #255	; 0xff
 8002348:	d003      	beq.n	8002352 <TIM2_IRQHandler+0x4a>
 800234a:	7c1a      	ldrb	r2, [r3, #16]
 800234c:	3201      	adds	r2, #1
 800234e:	b2d2      	uxtb	r2, r2
 8002350:	741a      	strb	r2, [r3, #16]
 8002352:	fb06 f304 	mul.w	r3, r6, r4
 8002356:	18ea      	adds	r2, r5, r3
 8002358:	7c52      	ldrb	r2, [r2, #17]
 800235a:	2a00      	cmp	r2, #0
 800235c:	d1e8      	bne.n	8002330 <TIM2_IRQHandler+0x28>
 800235e:	58ea      	ldr	r2, [r5, r3]
 8002360:	b10a      	cbz	r2, 8002366 <TIM2_IRQHandler+0x5e>
 8002362:	58eb      	ldr	r3, [r5, r3]
 8002364:	4798      	blx	r3
 8002366:	fb06 5304 	mla	r3, r6, r4, r5
 800236a:	685a      	ldr	r2, [r3, #4]
 800236c:	2a00      	cmp	r2, #0
 800236e:	d0df      	beq.n	8002330 <TIM2_IRQHandler+0x28>
 8002370:	6858      	ldr	r0, [r3, #4]
 8002372:	6803      	ldr	r3, [r0, #0]
 8002374:	689b      	ldr	r3, [r3, #8]
 8002376:	4798      	blx	r3
 8002378:	e7da      	b.n	8002330 <TIM2_IRQHandler+0x28>
 800237a:	bf00      	nop
 800237c:	20000680 	andcs	r0, r0, r0, lsl #13
 8002380:	2000067c 	andcs	r0, r0, ip, ror r6

08002384 <_ZN5Timer12timer_2_initEm>:
 8002384:	b510      	push	{r4, lr}
 8002386:	460c      	mov	r4, r1
 8002388:	b092      	sub	sp, #72	; 0x48
 800238a:	f7ff fb8d 	bl	8001aa8 <HAL_RCC_GetPCLK1Freq>
 800238e:	4a26      	ldr	r2, [pc, #152]	; (8002428 <_ZN5Timer12timer_2_initEm+0xa4>)
 8002390:	2c00      	cmp	r4, #0
 8002392:	ea4f 0340 	mov.w	r3, r0, lsl #1
 8002396:	bf08      	it	eq
 8002398:	2401      	moveq	r4, #1
 800239a:	ee07 3a10 	vmov	s14, r3
 800239e:	4284      	cmp	r4, r0
 80023a0:	eeb8 7a47 	vcvt.f32.u32	s14, s14
 80023a4:	bf28      	it	cs
 80023a6:	4604      	movcs	r4, r0
 80023a8:	a803      	add	r0, sp, #12
 80023aa:	ee07 4a90 	vmov	s15, r4
 80023ae:	2400      	movs	r4, #0
 80023b0:	eef8 7a67 	vcvt.f32.u32	s15, s15
 80023b4:	9402      	str	r4, [sp, #8]
 80023b6:	6c11      	ldr	r1, [r2, #64]	; 0x40
 80023b8:	eec7 6a27 	vdiv.f32	s13, s14, s15
 80023bc:	f041 0101 	orr.w	r1, r1, #1
 80023c0:	6411      	str	r1, [r2, #64]	; 0x40
 80023c2:	6c12      	ldr	r2, [r2, #64]	; 0x40
 80023c4:	9407      	str	r4, [sp, #28]
 80023c6:	f002 0201 	and.w	r2, r2, #1
 80023ca:	9405      	str	r4, [sp, #20]
 80023cc:	9408      	str	r4, [sp, #32]
 80023ce:	9202      	str	r2, [sp, #8]
 80023d0:	9a02      	ldr	r2, [sp, #8]
 80023d2:	f04f 4280 	mov.w	r2, #1073741824	; 0x40000000
 80023d6:	9203      	str	r2, [sp, #12]
 80023d8:	eefc 7ae6 	vcvt.u32.f32	s15, s13
 80023dc:	ee17 3a90 	vmov	r3, s15
 80023e0:	0c1b      	lsrs	r3, r3, #16
 80023e2:	1c5a      	adds	r2, r3, #1
 80023e4:	9304      	str	r3, [sp, #16]
 80023e6:	ee07 2a10 	vmov	s14, r2
 80023ea:	eeb8 7ac7 	vcvt.f32.s32	s14, s14
 80023ee:	eec6 7a87 	vdiv.f32	s15, s13, s14
 80023f2:	ed9f 7a0e 	vldr	s14, [pc, #56]	; 800242c <_ZN5Timer12timer_2_initEm+0xa8>
 80023f6:	ee77 7ac7 	vsub.f32	s15, s15, s14
 80023fa:	eefc 7ae7 	vcvt.u32.f32	s15, s15
 80023fe:	edcd 7a01 	vstr	s15, [sp, #4]
 8002402:	f8bd 2004 	ldrh.w	r2, [sp, #4]
 8002406:	9206      	str	r2, [sp, #24]
 8002408:	f7ff fe12 	bl	8002030 <HAL_TIM_Base_Init>
 800240c:	4622      	mov	r2, r4
 800240e:	2103      	movs	r1, #3
 8002410:	201c      	movs	r0, #28
 8002412:	f7fe ffb3 	bl	800137c <HAL_NVIC_SetPriority>
 8002416:	201c      	movs	r0, #28
 8002418:	f7fe ffe8 	bl	80013ec <HAL_NVIC_EnableIRQ>
 800241c:	a803      	add	r0, sp, #12
 800241e:	f7ff fd98 	bl	8001f52 <HAL_TIM_Base_Start_IT>
 8002422:	b012      	add	sp, #72	; 0x48
 8002424:	bd10      	pop	{r4, pc}
 8002426:	bf00      	nop
 8002428:	40023800 	andmi	r3, r2, r0, lsl #16
 800242c:	3f800000 	svccc	0x00800000

08002430 <_ZN5Timer4initEv>:
 8002430:	2200      	movs	r2, #0
 8002432:	b5f8      	push	{r3, r4, r5, r6, r7, lr}
 8002434:	4d0f      	ldr	r5, [pc, #60]	; (8002474 <_ZN5Timer4initEv+0x44>)
 8002436:	2714      	movs	r7, #20
 8002438:	4613      	mov	r3, r2
 800243a:	f44f 767a 	mov.w	r6, #1000	; 0x3e8
 800243e:	fb07 f402 	mul.w	r4, r7, r2
 8002442:	3201      	adds	r2, #1
 8002444:	1929      	adds	r1, r5, r4
 8002446:	2a20      	cmp	r2, #32
 8002448:	512b      	str	r3, [r5, r4]
 800244a:	604b      	str	r3, [r1, #4]
 800244c:	608e      	str	r6, [r1, #8]
 800244e:	60cb      	str	r3, [r1, #12]
 8002450:	740b      	strb	r3, [r1, #16]
 8002452:	744b      	strb	r3, [r1, #17]
 8002454:	d1f3      	bne.n	800243e <_ZN5Timer4initEv+0xe>
 8002456:	4a08      	ldr	r2, [pc, #32]	; (8002478 <_ZN5Timer4initEv+0x48>)
 8002458:	f44f 717a 	mov.w	r1, #1000	; 0x3e8
 800245c:	6013      	str	r3, [r2, #0]
 800245e:	4a07      	ldr	r2, [pc, #28]	; (800247c <_ZN5Timer4initEv+0x4c>)
 8002460:	6003      	str	r3, [r0, #0]
 8002462:	6c13      	ldr	r3, [r2, #64]	; 0x40
 8002464:	f043 0301 	orr.w	r3, r3, #1
 8002468:	6413      	str	r3, [r2, #64]	; 0x40
 800246a:	f7ff ff8b 	bl	8002384 <_ZN5Timer12timer_2_initEm>
 800246e:	b662      	cpsie	i
 8002470:	bdf8      	pop	{r3, r4, r5, r6, r7, pc}
 8002472:	bf00      	nop
 8002474:	20000680 	andcs	r0, r0, r0, lsl #13
 8002478:	2000067c 	andcs	r0, r0, ip, ror r6
 800247c:	40023800 	andmi	r3, r2, r0, lsl #16

08002480 <_GLOBAL__sub_I_timer>:
 8002480:	4a02      	ldr	r2, [pc, #8]	; (800248c <_GLOBAL__sub_I_timer+0xc>)
 8002482:	4903      	ldr	r1, [pc, #12]	; (8002490 <_GLOBAL__sub_I_timer+0x10>)
 8002484:	4803      	ldr	r0, [pc, #12]	; (8002494 <_GLOBAL__sub_I_timer+0x14>)
 8002486:	f002 b9e3 	b.w	8004850 <__aeabi_atexit>
 800248a:	bf00      	nop
 800248c:	20000000 	andcs	r0, r0, r0
 8002490:	080022c9 	stmdaeq	r0, {r0, r3, r6, r7, r9, sp}
 8002494:	20000900 	andcs	r0, r0, r0, lsl #18

08002498 <_ZN8TerminalD1Ev>:
 8002498:	b510      	push	{r4, lr}
 800249a:	4604      	mov	r4, r0
 800249c:	f001 fb97 	bl	8003bce <_ZN5UsartD1Ev>
 80024a0:	4620      	mov	r0, r4
 80024a2:	bd10      	pop	{r4, pc}

080024a4 <_ZN8Terminal4initEv>:
 80024a4:	f001 bb94 	b.w	8003bd0 <_ZN5Usart4initEv>

080024a8 <_ZN8Terminal4putsEPc>:
 80024a8:	b538      	push	{r3, r4, r5, lr}
 80024aa:	4605      	mov	r5, r0
 80024ac:	1e4c      	subs	r4, r1, #1
 80024ae:	f814 1f01 	ldrb.w	r1, [r4, #1]!
 80024b2:	b119      	cbz	r1, 80024bc <_ZN8Terminal4putsEPc+0x14>
 80024b4:	4628      	mov	r0, r5
 80024b6:	f001 fbe1 	bl	8003c7c <_ZN5Usart8put_charEc>
 80024ba:	e7f8      	b.n	80024ae <_ZN8Terminal4putsEPc+0x6>
 80024bc:	bd38      	pop	{r3, r4, r5, pc}

080024be <_ZN8Terminal4putsEPKc>:
 80024be:	f7ff bff3 	b.w	80024a8 <_ZN8Terminal4putsEPc>

080024c2 <_ZN8Terminal4putiEl>:
 80024c2:	b57f      	push	{r0, r1, r2, r3, r4, r5, r6, lr}
 80024c4:	1e0b      	subs	r3, r1, #0
 80024c6:	f04f 0200 	mov.w	r2, #0
 80024ca:	f04f 010a 	mov.w	r1, #10
 80024ce:	bfba      	itte	lt
 80024d0:	425b      	neglt	r3, r3
 80024d2:	2401      	movlt	r4, #1
 80024d4:	4614      	movge	r4, r2
 80024d6:	460e      	mov	r6, r1
 80024d8:	f88d 200f 	strb.w	r2, [sp, #15]
 80024dc:	aa04      	add	r2, sp, #16
 80024de:	fb93 f5f6 	sdiv	r5, r3, r6
 80024e2:	fb06 3315 	mls	r3, r6, r5, r3
 80024e6:	440a      	add	r2, r1
 80024e8:	3330      	adds	r3, #48	; 0x30
 80024ea:	f802 3c0c 	strb.w	r3, [r2, #-12]
 80024ee:	1e4a      	subs	r2, r1, #1
 80024f0:	462b      	mov	r3, r5
 80024f2:	b2d2      	uxtb	r2, r2
 80024f4:	b965      	cbnz	r5, 8002510 <_ZN8Terminal4putiEl+0x4e>
 80024f6:	b12c      	cbz	r4, 8002504 <_ZN8Terminal4putiEl+0x42>
 80024f8:	ab04      	add	r3, sp, #16
 80024fa:	212d      	movs	r1, #45	; 0x2d
 80024fc:	4413      	add	r3, r2
 80024fe:	f803 1c0c 	strb.w	r1, [r3, #-12]
 8002502:	4611      	mov	r1, r2
 8002504:	ab01      	add	r3, sp, #4
 8002506:	4419      	add	r1, r3
 8002508:	f7ff ffce 	bl	80024a8 <_ZN8Terminal4putsEPc>
 800250c:	b004      	add	sp, #16
 800250e:	bd70      	pop	{r4, r5, r6, pc}
 8002510:	4611      	mov	r1, r2
 8002512:	e7e3      	b.n	80024dc <_ZN8Terminal4putiEl+0x1a>

08002514 <_ZN8Terminal5putuiEm>:
 8002514:	220a      	movs	r2, #10
 8002516:	2300      	movs	r3, #0
 8002518:	b530      	push	{r4, r5, lr}
 800251a:	4615      	mov	r5, r2
 800251c:	b085      	sub	sp, #20
 800251e:	f88d 300f 	strb.w	r3, [sp, #15]
 8002522:	fbb1 f4f5 	udiv	r4, r1, r5
 8002526:	fb05 1314 	mls	r3, r5, r4, r1
 800252a:	a904      	add	r1, sp, #16
 800252c:	3330      	adds	r3, #48	; 0x30
 800252e:	4411      	add	r1, r2
 8002530:	f801 3c0c 	strb.w	r3, [r1, #-12]
 8002534:	1e53      	subs	r3, r2, #1
 8002536:	4621      	mov	r1, r4
 8002538:	b2db      	uxtb	r3, r3
 800253a:	b92c      	cbnz	r4, 8002548 <_ZN8Terminal5putuiEm+0x34>
 800253c:	ab01      	add	r3, sp, #4
 800253e:	1899      	adds	r1, r3, r2
 8002540:	f7ff ffb2 	bl	80024a8 <_ZN8Terminal4putsEPc>
 8002544:	b005      	add	sp, #20
 8002546:	bd30      	pop	{r4, r5, pc}
 8002548:	461a      	mov	r2, r3
 800254a:	e7ea      	b.n	8002522 <_ZN8Terminal5putuiEm+0xe>

0800254c <_ZN8Terminal4putxEm>:
 800254c:	b51f      	push	{r0, r1, r2, r3, r4, lr}
 800254e:	2300      	movs	r3, #0
 8002550:	220a      	movs	r2, #10
 8002552:	f88d 300f 	strb.w	r3, [sp, #15]
 8002556:	f001 030f 	and.w	r3, r1, #15
 800255a:	ac04      	add	r4, sp, #16
 800255c:	2b09      	cmp	r3, #9
 800255e:	4414      	add	r4, r2
 8002560:	bf94      	ite	ls
 8002562:	3330      	addls	r3, #48	; 0x30
 8002564:	3357      	addhi	r3, #87	; 0x57
 8002566:	0909      	lsrs	r1, r1, #4
 8002568:	f804 3c0c 	strb.w	r3, [r4, #-12]
 800256c:	f102 33ff 	add.w	r3, r2, #4294967295	; 0xffffffff
 8002570:	b2db      	uxtb	r3, r3
 8002572:	d105      	bne.n	8002580 <_ZN8Terminal4putxEm+0x34>
 8002574:	ab01      	add	r3, sp, #4
 8002576:	1899      	adds	r1, r3, r2
 8002578:	f7ff ff96 	bl	80024a8 <_ZN8Terminal4putsEPc>
 800257c:	b004      	add	sp, #16
 800257e:	bd10      	pop	{r4, pc}
 8002580:	461a      	mov	r2, r3
 8002582:	e7e8      	b.n	8002556 <_ZN8Terminal4putxEm+0xa>

08002584 <_ZN8Terminal4putfEfh>:
 8002584:	ee07 1a90 	vmov	s15, r1
 8002588:	eef5 7ac0 	vcmpe.f32	s15, #0.0
 800258c:	b5f8      	push	{r3, r4, r5, r6, r7, lr}
 800258e:	eef1 fa10 	vmrs	APSR_nzcv, fpscr
 8002592:	4606      	mov	r6, r0
 8002594:	4615      	mov	r5, r2
 8002596:	f04f 0301 	mov.w	r3, #1
 800259a:	f04f 0200 	mov.w	r2, #0
 800259e:	f04f 000a 	mov.w	r0, #10
 80025a2:	bf46      	itte	mi
 80025a4:	eef1 7a67 	vnegmi.f32	s15, s15
 80025a8:	212d      	movmi	r1, #45	; 0x2d
 80025aa:	2120      	movpl	r1, #32
 80025ac:	ed2d 8b02 	vpush	{d8}
 80025b0:	42aa      	cmp	r2, r5
 80025b2:	d202      	bcs.n	80025ba <_ZN8Terminal4putfEfh+0x36>
 80025b4:	4343      	muls	r3, r0
 80025b6:	3201      	adds	r2, #1
 80025b8:	e7fa      	b.n	80025b0 <_ZN8Terminal4putfEfh+0x2c>
 80025ba:	eebd 8ae7 	vcvt.s32.f32	s16, s15
 80025be:	4630      	mov	r0, r6
 80025c0:	eeb8 7ac8 	vcvt.f32.s32	s14, s16
 80025c4:	ee77 7ac7 	vsub.f32	s15, s15, s14
 80025c8:	ee07 3a10 	vmov	s14, r3
 80025cc:	eeb8 7a47 	vcvt.f32.u32	s14, s14
 80025d0:	ee67 7a87 	vmul.f32	s15, s15, s14
 80025d4:	eefd 7ae7 	vcvt.s32.f32	s15, s15
 80025d8:	ee17 4a90 	vmov	r4, s15
 80025dc:	2c00      	cmp	r4, #0
 80025de:	bfb8      	it	lt
 80025e0:	4264      	neglt	r4, r4
 80025e2:	f001 fb4b 	bl	8003c7c <_ZN5Usart8put_charEc>
 80025e6:	ee18 1a10 	vmov	r1, s16
 80025ea:	4630      	mov	r0, r6
 80025ec:	f7ff ff69 	bl	80024c2 <_ZN8Terminal4putiEl>
 80025f0:	212e      	movs	r1, #46	; 0x2e
 80025f2:	4630      	mov	r0, r6
 80025f4:	f001 fb42 	bl	8003c7c <_ZN5Usart8put_charEc>
 80025f8:	2200      	movs	r2, #0
 80025fa:	2301      	movs	r3, #1
 80025fc:	210a      	movs	r1, #10
 80025fe:	434b      	muls	r3, r1
 8002600:	3201      	adds	r2, #1
 8002602:	42a3      	cmp	r3, r4
 8002604:	b2d2      	uxtb	r2, r2
 8002606:	dbfa      	blt.n	80025fe <_ZN8Terminal4putfEfh+0x7a>
 8002608:	1aad      	subs	r5, r5, r2
 800260a:	2700      	movs	r7, #0
 800260c:	b2ed      	uxtb	r5, r5
 800260e:	42af      	cmp	r7, r5
 8002610:	d205      	bcs.n	800261e <_ZN8Terminal4putfEfh+0x9a>
 8002612:	2130      	movs	r1, #48	; 0x30
 8002614:	4630      	mov	r0, r6
 8002616:	f001 fb31 	bl	8003c7c <_ZN5Usart8put_charEc>
 800261a:	3701      	adds	r7, #1
 800261c:	e7f7      	b.n	800260e <_ZN8Terminal4putfEfh+0x8a>
 800261e:	ecbd 8b02 	vpop	{d8}
 8002622:	4621      	mov	r1, r4
 8002624:	4630      	mov	r0, r6
 8002626:	e8bd 40f8 	ldmia.w	sp!, {r3, r4, r5, r6, r7, lr}
 800262a:	f7ff bf4a 	b.w	80024c2 <_ZN8Terminal4putiEl>

0800262e <_ZN8Terminal6printfEPKcz>:
 800262e:	b40e      	push	{r1, r2, r3}
 8002630:	b577      	push	{r0, r1, r2, r4, r5, r6, lr}
 8002632:	ab07      	add	r3, sp, #28
 8002634:	4604      	mov	r4, r0
 8002636:	2500      	movs	r5, #0
 8002638:	f853 6b04 	ldr.w	r6, [r3], #4
 800263c:	9301      	str	r3, [sp, #4]
 800263e:	5d71      	ldrb	r1, [r6, r5]
 8002640:	2900      	cmp	r1, #0
 8002642:	d053      	beq.n	80026ec <_ZN8Terminal6printfEPKcz+0xbe>
 8002644:	2925      	cmp	r1, #37	; 0x25
 8002646:	d004      	beq.n	8002652 <_ZN8Terminal6printfEPKcz+0x24>
 8002648:	4620      	mov	r0, r4
 800264a:	3501      	adds	r5, #1
 800264c:	f001 fb16 	bl	8003c7c <_ZN5Usart8put_charEc>
 8002650:	e7f5      	b.n	800263e <_ZN8Terminal6printfEPKcz+0x10>
 8002652:	1973      	adds	r3, r6, r5
 8002654:	7859      	ldrb	r1, [r3, #1]
 8002656:	2969      	cmp	r1, #105	; 0x69
 8002658:	d018      	beq.n	800268c <_ZN8Terminal6printfEPKcz+0x5e>
 800265a:	d809      	bhi.n	8002670 <_ZN8Terminal6printfEPKcz+0x42>
 800265c:	2963      	cmp	r1, #99	; 0x63
 800265e:	d02e      	beq.n	80026be <_ZN8Terminal6printfEPKcz+0x90>
 8002660:	2966      	cmp	r1, #102	; 0x66
 8002662:	d031      	beq.n	80026c8 <_ZN8Terminal6printfEPKcz+0x9a>
 8002664:	2925      	cmp	r1, #37	; 0x25
 8002666:	d118      	bne.n	800269a <_ZN8Terminal6printfEPKcz+0x6c>
 8002668:	4620      	mov	r0, r4
 800266a:	f001 fb07 	bl	8003c7c <_ZN5Usart8put_charEc>
 800266e:	e014      	b.n	800269a <_ZN8Terminal6printfEPKcz+0x6c>
 8002670:	2975      	cmp	r1, #117	; 0x75
 8002672:	d014      	beq.n	800269e <_ZN8Terminal6printfEPKcz+0x70>
 8002674:	2978      	cmp	r1, #120	; 0x78
 8002676:	d01a      	beq.n	80026ae <_ZN8Terminal6printfEPKcz+0x80>
 8002678:	2973      	cmp	r1, #115	; 0x73
 800267a:	d10e      	bne.n	800269a <_ZN8Terminal6printfEPKcz+0x6c>
 800267c:	9b01      	ldr	r3, [sp, #4]
 800267e:	4620      	mov	r0, r4
 8002680:	1d1a      	adds	r2, r3, #4
 8002682:	6819      	ldr	r1, [r3, #0]
 8002684:	9201      	str	r2, [sp, #4]
 8002686:	f7ff ff0f 	bl	80024a8 <_ZN8Terminal4putsEPc>
 800268a:	e006      	b.n	800269a <_ZN8Terminal6printfEPKcz+0x6c>
 800268c:	9b01      	ldr	r3, [sp, #4]
 800268e:	4620      	mov	r0, r4
 8002690:	1d1a      	adds	r2, r3, #4
 8002692:	6819      	ldr	r1, [r3, #0]
 8002694:	9201      	str	r2, [sp, #4]
 8002696:	f7ff ff14 	bl	80024c2 <_ZN8Terminal4putiEl>
 800269a:	3502      	adds	r5, #2
 800269c:	e7cf      	b.n	800263e <_ZN8Terminal6printfEPKcz+0x10>
 800269e:	9b01      	ldr	r3, [sp, #4]
 80026a0:	4620      	mov	r0, r4
 80026a2:	1d1a      	adds	r2, r3, #4
 80026a4:	6819      	ldr	r1, [r3, #0]
 80026a6:	9201      	str	r2, [sp, #4]
 80026a8:	f7ff ff34 	bl	8002514 <_ZN8Terminal5putuiEm>
 80026ac:	e7f5      	b.n	800269a <_ZN8Terminal6printfEPKcz+0x6c>
 80026ae:	9b01      	ldr	r3, [sp, #4]
 80026b0:	4620      	mov	r0, r4
 80026b2:	1d1a      	adds	r2, r3, #4
 80026b4:	6819      	ldr	r1, [r3, #0]
 80026b6:	9201      	str	r2, [sp, #4]
 80026b8:	f7ff ff48 	bl	800254c <_ZN8Terminal4putxEm>
 80026bc:	e7ed      	b.n	800269a <_ZN8Terminal6printfEPKcz+0x6c>
 80026be:	9b01      	ldr	r3, [sp, #4]
 80026c0:	1d1a      	adds	r2, r3, #4
 80026c2:	7819      	ldrb	r1, [r3, #0]
 80026c4:	9201      	str	r2, [sp, #4]
 80026c6:	e7cf      	b.n	8002668 <_ZN8Terminal6printfEPKcz+0x3a>
 80026c8:	9b01      	ldr	r3, [sp, #4]
 80026ca:	4620      	mov	r0, r4
 80026cc:	3307      	adds	r3, #7
 80026ce:	f023 0307 	bic.w	r3, r3, #7
 80026d2:	ed93 7b00 	vldr	d7, [r3]
 80026d6:	f103 0208 	add.w	r2, r3, #8
 80026da:	eef7 7bc7 	vcvt.f32.f64	s15, d7
 80026de:	9201      	str	r2, [sp, #4]
 80026e0:	2203      	movs	r2, #3
 80026e2:	ee17 1a90 	vmov	r1, s15
 80026e6:	f7ff ff4d 	bl	8002584 <_ZN8Terminal4putfEfh>
 80026ea:	e7d6      	b.n	800269a <_ZN8Terminal6printfEPKcz+0x6c>
 80026ec:	b003      	add	sp, #12
 80026ee:	e8bd 4070 	ldmia.w	sp!, {r4, r5, r6, lr}
 80026f2:	b003      	add	sp, #12
 80026f4:	4770      	bx	lr
 80026f6:	0000      	movs	r0, r0

080026f8 <_GLOBAL__sub_I_terminal>:
 80026f8:	b510      	push	{r4, lr}
 80026fa:	4c05      	ldr	r4, [pc, #20]	; (8002710 <_GLOBAL__sub_I_terminal+0x18>)
 80026fc:	4620      	mov	r0, r4
 80026fe:	f001 fa65 	bl	8003bcc <_ZN5UsartC1Ev>
 8002702:	4620      	mov	r0, r4
 8002704:	4a03      	ldr	r2, [pc, #12]	; (8002714 <_GLOBAL__sub_I_terminal+0x1c>)
 8002706:	4904      	ldr	r1, [pc, #16]	; (8002718 <_GLOBAL__sub_I_terminal+0x20>)
 8002708:	e8bd 4010 	ldmia.w	sp!, {r4, lr}
 800270c:	f002 b8a0 	b.w	8004850 <__aeabi_atexit>
 8002710:	20000904 	andcs	r0, r0, r4, lsl #18
 8002714:	20000000 	andcs	r0, r0, r0
 8002718:	08002499 	stmdaeq	r0, {r0, r3, r4, r7, sl, sp}

0800271c <_ZN3LCDD1Ev>:
 800271c:	4770      	bx	lr

0800271e <_ZN3LCD9get_widthEv>:
 800271e:	f44f 70f0 	mov.w	r0, #480	; 0x1e0
 8002722:	4770      	bx	lr

08002724 <_ZN3LCD10get_heightEv>:
 8002724:	f44f 7088 	mov.w	r0, #272	; 0x110
 8002728:	4770      	bx	lr

0800272a <_ZN3LCD20LayerInit_FullscreenEv>:
 800272a:	e92d 4ff0 	stmdb	sp!, {r4, r5, r6, r7, r8, r9, sl, fp, lr}
 800272e:	f8d0 20c0 	ldr.w	r2, [r0, #192]	; 0xc0
 8002732:	b091      	sub	sp, #68	; 0x44
 8002734:	2400      	movs	r4, #0
 8002736:	f100 0718 	add.w	r7, r0, #24
 800273a:	f44f 76f0 	mov.w	r6, #480	; 0x1e0
 800273e:	f44f 7588 	mov.w	r5, #272	; 0x110
 8002742:	2302      	movs	r3, #2
 8002744:	f04f 0aff 	mov.w	sl, #255	; 0xff
 8002748:	f44f 69c0 	mov.w	r9, #1536	; 0x600
 800274c:	f04f 0807 	mov.w	r8, #7
 8002750:	4683      	mov	fp, r0
 8002752:	920c      	str	r2, [sp, #48]	; 0x30
 8002754:	a903      	add	r1, sp, #12
 8002756:	4622      	mov	r2, r4
 8002758:	4638      	mov	r0, r7
 800275a:	9307      	str	r3, [sp, #28]
 800275c:	9301      	str	r3, [sp, #4]
 800275e:	9403      	str	r4, [sp, #12]
 8002760:	9604      	str	r6, [sp, #16]
 8002762:	9405      	str	r4, [sp, #20]
 8002764:	9506      	str	r5, [sp, #24]
 8002766:	f8cd a020 	str.w	sl, [sp, #32]
 800276a:	9409      	str	r4, [sp, #36]	; 0x24
 800276c:	f88d 403c 	strb.w	r4, [sp, #60]	; 0x3c
 8002770:	f88d 403d 	strb.w	r4, [sp, #61]	; 0x3d
 8002774:	f88d 403e 	strb.w	r4, [sp, #62]	; 0x3e
 8002778:	f8cd 9028 	str.w	r9, [sp, #40]	; 0x28
 800277c:	f8cd 802c 	str.w	r8, [sp, #44]	; 0x2c
 8002780:	960d      	str	r6, [sp, #52]	; 0x34
 8002782:	950e      	str	r5, [sp, #56]	; 0x38
 8002784:	f7ff fb98 	bl	8001eb8 <HAL_LTDC_ConfigLayer>
 8002788:	9b01      	ldr	r3, [sp, #4]
 800278a:	2201      	movs	r2, #1
 800278c:	a903      	add	r1, sp, #12
 800278e:	4638      	mov	r0, r7
 8002790:	9307      	str	r3, [sp, #28]
 8002792:	f8db 30c0 	ldr.w	r3, [fp, #192]	; 0xc0
 8002796:	9403      	str	r4, [sp, #12]
 8002798:	f503 337f 	add.w	r3, r3, #261120	; 0x3fc00
 800279c:	9604      	str	r6, [sp, #16]
 800279e:	9405      	str	r4, [sp, #20]
 80027a0:	9506      	str	r5, [sp, #24]
 80027a2:	930c      	str	r3, [sp, #48]	; 0x30
 80027a4:	f8cd a020 	str.w	sl, [sp, #32]
 80027a8:	9409      	str	r4, [sp, #36]	; 0x24
 80027aa:	f88d 403c 	strb.w	r4, [sp, #60]	; 0x3c
 80027ae:	f88d 403d 	strb.w	r4, [sp, #61]	; 0x3d
 80027b2:	f88d 403e 	strb.w	r4, [sp, #62]	; 0x3e
 80027b6:	f8cd 9028 	str.w	r9, [sp, #40]	; 0x28
 80027ba:	f8cd 802c 	str.w	r8, [sp, #44]	; 0x2c
 80027be:	960d      	str	r6, [sp, #52]	; 0x34
 80027c0:	950e      	str	r5, [sp, #56]	; 0x38
 80027c2:	f7ff fb79 	bl	8001eb8 <HAL_LTDC_ConfigLayer>
 80027c6:	b011      	add	sp, #68	; 0x44
 80027c8:	e8bd 8ff0 	ldmia.w	sp!, {r4, r5, r6, r7, r8, r9, sl, fp, pc}

080027cc <_ZN3LCD10SetLayer_2Ev>:
 80027cc:	f8d0 30c0 	ldr.w	r3, [r0, #192]	; 0xc0
 80027d0:	f503 337f 	add.w	r3, r3, #261120	; 0x3fc00
 80027d4:	6003      	str	r3, [r0, #0]
 80027d6:	2301      	movs	r3, #1
 80027d8:	6043      	str	r3, [r0, #4]
 80027da:	4770      	bx	lr

080027dc <_ZN3LCD9FillLayerEt>:
 80027dc:	6802      	ldr	r2, [r0, #0]
 80027de:	2300      	movs	r3, #0
 80027e0:	52d1      	strh	r1, [r2, r3]
 80027e2:	3302      	adds	r3, #2
 80027e4:	f5b3 3f7f 	cmp.w	r3, #261120	; 0x3fc00
 80027e8:	d1fa      	bne.n	80027e0 <_ZN3LCD9FillLayerEt+0x4>
 80027ea:	4770      	bx	lr

080027ec <_ZN3LCD15SetTransparencyEh>:
 80027ec:	6842      	ldr	r2, [r0, #4]
 80027ee:	3018      	adds	r0, #24
 80027f0:	b90a      	cbnz	r2, 80027f6 <_ZN3LCD15SetTransparencyEh+0xa>
 80027f2:	f7ff bb8a 	b.w	8001f0a <HAL_LTDC_SetAlpha>
 80027f6:	2201      	movs	r2, #1
 80027f8:	e7fb      	b.n	80027f2 <_ZN3LCD15SetTransparencyEh+0x6>

080027fa <_ZN3LCD14SetCursor2DrawEtt>:
 80027fa:	f240 13df 	movw	r3, #479	; 0x1df
 80027fe:	4299      	cmp	r1, r3
 8002800:	bf28      	it	cs
 8002802:	4619      	movcs	r1, r3
 8002804:	f240 130f 	movw	r3, #271	; 0x10f
 8002808:	429a      	cmp	r2, r3
 800280a:	81c1      	strh	r1, [r0, #14]
 800280c:	bf28      	it	cs
 800280e:	461a      	movcs	r2, r3
 8002810:	f44f 73f0 	mov.w	r3, #480	; 0x1e0
 8002814:	8202      	strh	r2, [r0, #16]
 8002816:	fb03 1202 	mla	r2, r3, r2, r1
 800281a:	6801      	ldr	r1, [r0, #0]
 800281c:	eb01 0242 	add.w	r2, r1, r2, lsl #1
 8002820:	6142      	str	r2, [r0, #20]
 8002822:	4770      	bx	lr

08002824 <_ZN3LCD9DrawPixelEt>:
 8002824:	6943      	ldr	r3, [r0, #20]
 8002826:	8019      	strh	r1, [r3, #0]
 8002828:	7b03      	ldrb	r3, [r0, #12]
 800282a:	2b01      	cmp	r3, #1
 800282c:	d11d      	bne.n	800286a <_ZN3LCD9DrawPixelEt+0x46>
 800282e:	89c3      	ldrh	r3, [r0, #14]
 8002830:	3301      	adds	r3, #1
 8002832:	b29b      	uxth	r3, r3
 8002834:	f5b3 7ff0 	cmp.w	r3, #480	; 0x1e0
 8002838:	d201      	bcs.n	800283e <_ZN3LCD9DrawPixelEt+0x1a>
 800283a:	81c3      	strh	r3, [r0, #14]
 800283c:	e00a      	b.n	8002854 <_ZN3LCD9DrawPixelEt+0x30>
 800283e:	8a03      	ldrh	r3, [r0, #16]
 8002840:	2200      	movs	r2, #0
 8002842:	3301      	adds	r3, #1
 8002844:	81c2      	strh	r2, [r0, #14]
 8002846:	b29b      	uxth	r3, r3
 8002848:	f5b3 7f88 	cmp.w	r3, #272	; 0x110
 800284c:	d201      	bcs.n	8002852 <_ZN3LCD9DrawPixelEt+0x2e>
 800284e:	8203      	strh	r3, [r0, #16]
 8002850:	e000      	b.n	8002854 <_ZN3LCD9DrawPixelEt+0x30>
 8002852:	8202      	strh	r2, [r0, #16]
 8002854:	8a03      	ldrh	r3, [r0, #16]
 8002856:	f44f 71f0 	mov.w	r1, #480	; 0x1e0
 800285a:	89c2      	ldrh	r2, [r0, #14]
 800285c:	fb01 2203 	mla	r2, r1, r3, r2
 8002860:	6803      	ldr	r3, [r0, #0]
 8002862:	eb03 0342 	add.w	r3, r3, r2, lsl #1
 8002866:	6143      	str	r3, [r0, #20]
 8002868:	4770      	bx	lr
 800286a:	8a03      	ldrh	r3, [r0, #16]
 800286c:	3301      	adds	r3, #1
 800286e:	b29b      	uxth	r3, r3
 8002870:	f5b3 7f88 	cmp.w	r3, #272	; 0x110
 8002874:	d3eb      	bcc.n	800284e <_ZN3LCD9DrawPixelEt+0x2a>
 8002876:	89c3      	ldrh	r3, [r0, #14]
 8002878:	2200      	movs	r2, #0
 800287a:	3301      	adds	r3, #1
 800287c:	8202      	strh	r2, [r0, #16]
 800287e:	b29b      	uxth	r3, r3
 8002880:	f5b3 7ff0 	cmp.w	r3, #480	; 0x1e0
 8002884:	d3d9      	bcc.n	800283a <_ZN3LCD9DrawPixelEt+0x16>
 8002886:	81c2      	strh	r2, [r0, #14]
 8002888:	e7e4      	b.n	8002854 <_ZN3LCD9DrawPixelEt+0x30>

0800288a <_ZN3LCD9DrawPixelEiihhh>:
 800288a:	b570      	push	{r4, r5, r6, lr}
 800288c:	f89d 5010 	ldrb.w	r5, [sp, #16]
 8002890:	08db      	lsrs	r3, r3, #3
 8002892:	f89d 4014 	ldrb.w	r4, [sp, #20]
 8002896:	b289      	uxth	r1, r1
 8002898:	10ad      	asrs	r5, r5, #2
 800289a:	10e4      	asrs	r4, r4, #3
 800289c:	b292      	uxth	r2, r2
 800289e:	ea44 1445 	orr.w	r4, r4, r5, lsl #5
 80028a2:	ea44 24c3 	orr.w	r4, r4, r3, lsl #11
 80028a6:	f7ff ffa8 	bl	80027fa <_ZN3LCD14SetCursor2DrawEtt>
 80028aa:	4621      	mov	r1, r4
 80028ac:	e8bd 4070 	ldmia.w	sp!, {r4, r5, r6, lr}
 80028b0:	f7ff bfb8 	b.w	8002824 <_ZN3LCD9DrawPixelEt>

080028b4 <_ZN3LCD7RefreshEv>:
 80028b4:	6841      	ldr	r1, [r0, #4]
 80028b6:	b510      	push	{r4, lr}
 80028b8:	4604      	mov	r4, r0
 80028ba:	b929      	cbnz	r1, 80028c8 <_ZN3LCD7RefreshEv+0x14>
 80028bc:	f7ff ff86 	bl	80027cc <_ZN3LCD10SetLayer_2Ev>
 80028c0:	e8bd 4010 	ldmia.w	sp!, {r4, lr}
 80028c4:	f7ff bf92 	b.w	80027ec <_ZN3LCD15SetTransparencyEh>
 80028c8:	21ff      	movs	r1, #255	; 0xff
 80028ca:	f7ff ff8f 	bl	80027ec <_ZN3LCD15SetTransparencyEh>
 80028ce:	f8d4 30c0 	ldr.w	r3, [r4, #192]	; 0xc0
 80028d2:	6023      	str	r3, [r4, #0]
 80028d4:	2300      	movs	r3, #0
 80028d6:	6063      	str	r3, [r4, #4]
 80028d8:	bd10      	pop	{r4, pc}
 80028da:	0000      	movs	r0, r0

080028dc <_ZN3LCD5PutChEiijhhh>:
 80028dc:	e92d 4ff0 	stmdb	sp!, {r4, r5, r6, r7, r8, r9, sl, fp, lr}
 80028e0:	b089      	sub	sp, #36	; 0x24
 80028e2:	4690      	mov	r8, r2
 80028e4:	2b20      	cmp	r3, #32
 80028e6:	4607      	mov	r7, r0
 80028e8:	f89d 2048 	ldrb.w	r2, [sp, #72]	; 0x48
 80028ec:	f101 0608 	add.w	r6, r1, #8
 80028f0:	bf38      	it	cc
 80028f2:	2320      	movcc	r3, #32
 80028f4:	2500      	movs	r5, #0
 80028f6:	9203      	str	r2, [sp, #12]
 80028f8:	f89d 204c 	ldrb.w	r2, [sp, #76]	; 0x4c
 80028fc:	3b20      	subs	r3, #32
 80028fe:	9204      	str	r2, [sp, #16]
 8002900:	ebc8 1303 	rsb	r3, r8, r3, lsl #4
 8002904:	f89d 2050 	ldrb.w	r2, [sp, #80]	; 0x50
 8002908:	9205      	str	r2, [sp, #20]
 800290a:	4a18      	ldr	r2, [pc, #96]	; (800296c <_ZN3LCD5PutChEiijhhh+0x90>)
 800290c:	18d3      	adds	r3, r2, r3
 800290e:	9306      	str	r3, [sp, #24]
 8002910:	2301      	movs	r3, #1
 8002912:	f108 0a10 	add.w	sl, r8, #16
 8002916:	4644      	mov	r4, r8
 8002918:	fa1f fb86 	uxth.w	fp, r6
 800291c:	fa03 f905 	lsl.w	r9, r3, r5
 8002920:	9b06      	ldr	r3, [sp, #24]
 8002922:	5d19      	ldrb	r1, [r3, r4]
 8002924:	ea11 0309 	ands.w	r3, r1, r9
 8002928:	d013      	beq.n	8002952 <_ZN3LCD5PutChEiijhhh+0x76>
 800292a:	9b05      	ldr	r3, [sp, #20]
 800292c:	4622      	mov	r2, r4
 800292e:	4631      	mov	r1, r6
 8002930:	4638      	mov	r0, r7
 8002932:	9301      	str	r3, [sp, #4]
 8002934:	9b04      	ldr	r3, [sp, #16]
 8002936:	9300      	str	r3, [sp, #0]
 8002938:	9b03      	ldr	r3, [sp, #12]
 800293a:	f7ff ffa6 	bl	800288a <_ZN3LCD9DrawPixelEiihhh>
 800293e:	3401      	adds	r4, #1
 8002940:	45a2      	cmp	sl, r4
 8002942:	d1ed      	bne.n	8002920 <_ZN3LCD5PutChEiijhhh+0x44>
 8002944:	3501      	adds	r5, #1
 8002946:	3e01      	subs	r6, #1
 8002948:	2d08      	cmp	r5, #8
 800294a:	d1e1      	bne.n	8002910 <_ZN3LCD5PutChEiijhhh+0x34>
 800294c:	b009      	add	sp, #36	; 0x24
 800294e:	e8bd 8ff0 	ldmia.w	sp!, {r4, r5, r6, r7, r8, r9, sl, fp, pc}
 8002952:	4659      	mov	r1, fp
 8002954:	4638      	mov	r0, r7
 8002956:	b2a2      	uxth	r2, r4
 8002958:	9307      	str	r3, [sp, #28]
 800295a:	f7ff ff4e 	bl	80027fa <_ZN3LCD14SetCursor2DrawEtt>
 800295e:	9b07      	ldr	r3, [sp, #28]
 8002960:	4638      	mov	r0, r7
 8002962:	4619      	mov	r1, r3
 8002964:	f7ff ff5e 	bl	8002824 <_ZN3LCD9DrawPixelEt>
 8002968:	e7e9      	b.n	800293e <_ZN3LCD5PutChEiijhhh+0x62>
 800296a:	bf00      	nop
 800296c:	08004909 	stmdaeq	r0, {r0, r3, r8, fp, lr}

08002970 <_ZN3LCD4PutsEiiPchhh>:
 8002970:	e92d 4ff0 	stmdb	sp!, {r4, r5, r6, r7, r8, r9, sl, fp, lr}
 8002974:	b085      	sub	sp, #20
 8002976:	4606      	mov	r6, r0
 8002978:	460f      	mov	r7, r1
 800297a:	4690      	mov	r8, r2
 800297c:	f89d 9038 	ldrb.w	r9, [sp, #56]	; 0x38
 8002980:	1e5d      	subs	r5, r3, #1
 8002982:	f89d a03c 	ldrb.w	sl, [sp, #60]	; 0x3c
 8002986:	2400      	movs	r4, #0
 8002988:	f89d b040 	ldrb.w	fp, [sp, #64]	; 0x40
 800298c:	f815 3f01 	ldrb.w	r3, [r5, #1]!
 8002990:	b14b      	cbz	r3, 80029a6 <_ZN3LCD4PutsEiiPchhh+0x36>
 8002992:	eb07 0154 	add.w	r1, r7, r4, lsr #1
 8002996:	4642      	mov	r2, r8
 8002998:	4630      	mov	r0, r6
 800299a:	3410      	adds	r4, #16
 800299c:	e88d 0e00 	stmia.w	sp, {r9, sl, fp}
 80029a0:	f7ff ff9c 	bl	80028dc <_ZN3LCD5PutChEiijhhh>
 80029a4:	e7f2      	b.n	800298c <_ZN3LCD4PutsEiiPchhh+0x1c>
 80029a6:	b005      	add	sp, #20
 80029a8:	e8bd 8ff0 	ldmia.w	sp!, {r4, r5, r6, r7, r8, r9, sl, fp, pc}

080029ac <_ZN3LCD6PutIntEiii>:
 80029ac:	b5f0      	push	{r4, r5, r6, r7, lr}
 80029ae:	2b00      	cmp	r3, #0
 80029b0:	f04f 0400 	mov.w	r4, #0
 80029b4:	f04f 050a 	mov.w	r5, #10
 80029b8:	b089      	sub	sp, #36	; 0x24
 80029ba:	bfba      	itte	lt
 80029bc:	425b      	neglt	r3, r3
 80029be:	2601      	movlt	r6, #1
 80029c0:	4626      	movge	r6, r4
 80029c2:	46ae      	mov	lr, r5
 80029c4:	f88d 401f 	strb.w	r4, [sp, #31]
 80029c8:	fb93 f7fe 	sdiv	r7, r3, lr
 80029cc:	fb0e 3417 	mls	r4, lr, r7, r3
 80029d0:	ab08      	add	r3, sp, #32
 80029d2:	3430      	adds	r4, #48	; 0x30
 80029d4:	442b      	add	r3, r5
 80029d6:	f803 4c0c 	strb.w	r4, [r3, #-12]
 80029da:	1e6c      	subs	r4, r5, #1
 80029dc:	463b      	mov	r3, r7
 80029de:	b2e4      	uxtb	r4, r4
 80029e0:	b987      	cbnz	r7, 8002a04 <_ZN3LCD6PutIntEiii+0x58>
 80029e2:	b12e      	cbz	r6, 80029f0 <_ZN3LCD6PutIntEiii+0x44>
 80029e4:	ab08      	add	r3, sp, #32
 80029e6:	252d      	movs	r5, #45	; 0x2d
 80029e8:	4423      	add	r3, r4
 80029ea:	f803 5c0c 	strb.w	r5, [r3, #-12]
 80029ee:	4625      	mov	r5, r4
 80029f0:	23ff      	movs	r3, #255	; 0xff
 80029f2:	9302      	str	r3, [sp, #8]
 80029f4:	9301      	str	r3, [sp, #4]
 80029f6:	9300      	str	r3, [sp, #0]
 80029f8:	ab05      	add	r3, sp, #20
 80029fa:	442b      	add	r3, r5
 80029fc:	f7ff ffb8 	bl	8002970 <_ZN3LCD4PutsEiiPchhh>
 8002a00:	b009      	add	sp, #36	; 0x24
 8002a02:	bdf0      	pop	{r4, r5, r6, r7, pc}
 8002a04:	4625      	mov	r5, r4
 8002a06:	e7df      	b.n	80029c8 <_ZN3LCD6PutIntEiii+0x1c>

08002a08 <_ZN3LCD23lcd_480x272_ClockConfigEv>:
 8002a08:	4805      	ldr	r0, [pc, #20]	; (8002a20 <_ZN3LCD23lcd_480x272_ClockConfigEv+0x18>)
 8002a0a:	2308      	movs	r3, #8
 8002a0c:	6003      	str	r3, [r0, #0]
 8002a0e:	23c0      	movs	r3, #192	; 0xc0
 8002a10:	6143      	str	r3, [r0, #20]
 8002a12:	2305      	movs	r3, #5
 8002a14:	61c3      	str	r3, [r0, #28]
 8002a16:	f44f 3380 	mov.w	r3, #65536	; 0x10000
 8002a1a:	62c3      	str	r3, [r0, #44]	; 0x2c
 8002a1c:	f7fd beca 	b.w	80007b4 <HAL_RCCEx_PeriphCLKConfig>
 8002a20:	20000908 	andcs	r0, r0, r8, lsl #18

08002a24 <_ZN3LCD19lcd_480x272_MspInitEv>:
 8002a24:	b5f0      	push	{r4, r5, r6, r7, lr}
 8002a26:	4b4f      	ldr	r3, [pc, #316]	; (8002b64 <_ZN3LCD19lcd_480x272_MspInitEv+0x140>)
 8002a28:	b08f      	sub	sp, #60	; 0x3c
 8002a2a:	2200      	movs	r2, #0
 8002a2c:	2402      	movs	r4, #2
 8002a2e:	250e      	movs	r5, #14
 8002a30:	484d      	ldr	r0, [pc, #308]	; (8002b68 <_ZN3LCD19lcd_480x272_MspInitEv+0x144>)
 8002a32:	9200      	str	r2, [sp, #0]
 8002a34:	f44f 5780 	mov.w	r7, #4096	; 0x1000
 8002a38:	6c59      	ldr	r1, [r3, #68]	; 0x44
 8002a3a:	4e4c      	ldr	r6, [pc, #304]	; (8002b6c <_ZN3LCD19lcd_480x272_MspInitEv+0x148>)
 8002a3c:	f041 6180 	orr.w	r1, r1, #67108864	; 0x4000000
 8002a40:	6459      	str	r1, [r3, #68]	; 0x44
 8002a42:	6c59      	ldr	r1, [r3, #68]	; 0x44
 8002a44:	f001 6180 	and.w	r1, r1, #67108864	; 0x4000000
 8002a48:	9100      	str	r1, [sp, #0]
 8002a4a:	9900      	ldr	r1, [sp, #0]
 8002a4c:	9201      	str	r2, [sp, #4]
 8002a4e:	6b19      	ldr	r1, [r3, #48]	; 0x30
 8002a50:	f441 0100 	orr.w	r1, r1, #8388608	; 0x800000
 8002a54:	6319      	str	r1, [r3, #48]	; 0x30
 8002a56:	6b19      	ldr	r1, [r3, #48]	; 0x30
 8002a58:	f401 0100 	and.w	r1, r1, #8388608	; 0x800000
 8002a5c:	9101      	str	r1, [sp, #4]
 8002a5e:	9901      	ldr	r1, [sp, #4]
 8002a60:	9202      	str	r2, [sp, #8]
 8002a62:	6b19      	ldr	r1, [r3, #48]	; 0x30
 8002a64:	f041 0110 	orr.w	r1, r1, #16
 8002a68:	6319      	str	r1, [r3, #48]	; 0x30
 8002a6a:	6b19      	ldr	r1, [r3, #48]	; 0x30
 8002a6c:	f001 0110 	and.w	r1, r1, #16
 8002a70:	9102      	str	r1, [sp, #8]
 8002a72:	9902      	ldr	r1, [sp, #8]
 8002a74:	9203      	str	r2, [sp, #12]
 8002a76:	6b19      	ldr	r1, [r3, #48]	; 0x30
 8002a78:	f041 0140 	orr.w	r1, r1, #64	; 0x40
 8002a7c:	6319      	str	r1, [r3, #48]	; 0x30
 8002a7e:	6b19      	ldr	r1, [r3, #48]	; 0x30
 8002a80:	f001 0140 	and.w	r1, r1, #64	; 0x40
 8002a84:	9103      	str	r1, [sp, #12]
 8002a86:	9903      	ldr	r1, [sp, #12]
 8002a88:	9204      	str	r2, [sp, #16]
 8002a8a:	6b19      	ldr	r1, [r3, #48]	; 0x30
 8002a8c:	f441 7180 	orr.w	r1, r1, #256	; 0x100
 8002a90:	6319      	str	r1, [r3, #48]	; 0x30
 8002a92:	6b19      	ldr	r1, [r3, #48]	; 0x30
 8002a94:	f401 7180 	and.w	r1, r1, #256	; 0x100
 8002a98:	9104      	str	r1, [sp, #16]
 8002a9a:	9904      	ldr	r1, [sp, #16]
 8002a9c:	9205      	str	r2, [sp, #20]
 8002a9e:	6b19      	ldr	r1, [r3, #48]	; 0x30
 8002aa0:	f441 7100 	orr.w	r1, r1, #512	; 0x200
 8002aa4:	6319      	str	r1, [r3, #48]	; 0x30
 8002aa6:	6b19      	ldr	r1, [r3, #48]	; 0x30
 8002aa8:	f401 7100 	and.w	r1, r1, #512	; 0x200
 8002aac:	9105      	str	r1, [sp, #20]
 8002aae:	9905      	ldr	r1, [sp, #20]
 8002ab0:	9206      	str	r2, [sp, #24]
 8002ab2:	6b19      	ldr	r1, [r3, #48]	; 0x30
 8002ab4:	f441 6180 	orr.w	r1, r1, #1024	; 0x400
 8002ab8:	6319      	str	r1, [r3, #48]	; 0x30
 8002aba:	6b19      	ldr	r1, [r3, #48]	; 0x30
 8002abc:	f401 6180 	and.w	r1, r1, #1024	; 0x400
 8002ac0:	9106      	str	r1, [sp, #24]
 8002ac2:	9906      	ldr	r1, [sp, #24]
 8002ac4:	9207      	str	r2, [sp, #28]
 8002ac6:	6b19      	ldr	r1, [r3, #48]	; 0x30
 8002ac8:	f441 7180 	orr.w	r1, r1, #256	; 0x100
 8002acc:	6319      	str	r1, [r3, #48]	; 0x30
 8002ace:	6b19      	ldr	r1, [r3, #48]	; 0x30
 8002ad0:	f401 7180 	and.w	r1, r1, #256	; 0x100
 8002ad4:	9107      	str	r1, [sp, #28]
 8002ad6:	9907      	ldr	r1, [sp, #28]
 8002ad8:	9208      	str	r2, [sp, #32]
 8002ada:	6b19      	ldr	r1, [r3, #48]	; 0x30
 8002adc:	f441 6180 	orr.w	r1, r1, #1024	; 0x400
 8002ae0:	6319      	str	r1, [r3, #48]	; 0x30
 8002ae2:	a909      	add	r1, sp, #36	; 0x24
 8002ae4:	6b1b      	ldr	r3, [r3, #48]	; 0x30
 8002ae6:	920b      	str	r2, [sp, #44]	; 0x2c
 8002ae8:	f403 6380 	and.w	r3, r3, #1024	; 0x400
 8002aec:	940a      	str	r4, [sp, #40]	; 0x28
 8002aee:	940c      	str	r4, [sp, #48]	; 0x30
 8002af0:	9308      	str	r3, [sp, #32]
 8002af2:	9b08      	ldr	r3, [sp, #32]
 8002af4:	2310      	movs	r3, #16
 8002af6:	950d      	str	r5, [sp, #52]	; 0x34
 8002af8:	9309      	str	r3, [sp, #36]	; 0x24
 8002afa:	f7ff fab1 	bl	8002060 <HAL_GPIO_Init>
 8002afe:	2309      	movs	r3, #9
 8002b00:	a909      	add	r1, sp, #36	; 0x24
 8002b02:	481b      	ldr	r0, [pc, #108]	; (8002b70 <_ZN3LCD19lcd_480x272_MspInitEv+0x14c>)
 8002b04:	940a      	str	r4, [sp, #40]	; 0x28
 8002b06:	930d      	str	r3, [sp, #52]	; 0x34
 8002b08:	9709      	str	r7, [sp, #36]	; 0x24
 8002b0a:	f7ff faa9 	bl	8002060 <HAL_GPIO_Init>
 8002b0e:	f44f 4367 	mov.w	r3, #59136	; 0xe700
 8002b12:	a909      	add	r1, sp, #36	; 0x24
 8002b14:	4630      	mov	r0, r6
 8002b16:	940a      	str	r4, [sp, #40]	; 0x28
 8002b18:	9309      	str	r3, [sp, #36]	; 0x24
 8002b1a:	950d      	str	r5, [sp, #52]	; 0x34
 8002b1c:	f7ff faa0 	bl	8002060 <HAL_GPIO_Init>
 8002b20:	f64e 73ff 	movw	r3, #61439	; 0xefff
 8002b24:	a909      	add	r1, sp, #36	; 0x24
 8002b26:	4813      	ldr	r0, [pc, #76]	; (8002b74 <_ZN3LCD19lcd_480x272_MspInitEv+0x150>)
 8002b28:	9309      	str	r3, [sp, #36]	; 0x24
 8002b2a:	940a      	str	r4, [sp, #40]	; 0x28
 8002b2c:	950d      	str	r5, [sp, #52]	; 0x34
 8002b2e:	f7ff fa97 	bl	8002060 <HAL_GPIO_Init>
 8002b32:	940a      	str	r4, [sp, #40]	; 0x28
 8002b34:	23f7      	movs	r3, #247	; 0xf7
 8002b36:	4c10      	ldr	r4, [pc, #64]	; (8002b78 <_ZN3LCD19lcd_480x272_MspInitEv+0x154>)
 8002b38:	a909      	add	r1, sp, #36	; 0x24
 8002b3a:	950d      	str	r5, [sp, #52]	; 0x34
 8002b3c:	2501      	movs	r5, #1
 8002b3e:	4620      	mov	r0, r4
 8002b40:	9309      	str	r3, [sp, #36]	; 0x24
 8002b42:	f7ff fa8d 	bl	8002060 <HAL_GPIO_Init>
 8002b46:	a909      	add	r1, sp, #36	; 0x24
 8002b48:	4630      	mov	r0, r6
 8002b4a:	9709      	str	r7, [sp, #36]	; 0x24
 8002b4c:	950a      	str	r5, [sp, #40]	; 0x28
 8002b4e:	f7ff fa87 	bl	8002060 <HAL_GPIO_Init>
 8002b52:	2308      	movs	r3, #8
 8002b54:	a909      	add	r1, sp, #36	; 0x24
 8002b56:	4620      	mov	r0, r4
 8002b58:	950a      	str	r5, [sp, #40]	; 0x28
 8002b5a:	9309      	str	r3, [sp, #36]	; 0x24
 8002b5c:	f7ff fa80 	bl	8002060 <HAL_GPIO_Init>
 8002b60:	b00f      	add	sp, #60	; 0x3c
 8002b62:	bdf0      	pop	{r4, r5, r6, r7, pc}
 8002b64:	40023800 	andmi	r3, r2, r0, lsl #16
 8002b68:	40021000 	andmi	r1, r2, r0
 8002b6c:	40022000 	andmi	r2, r2, r0
 8002b70:	40021800 	andmi	r1, r2, r0, lsl #16
 8002b74:	40022400 	andmi	r2, r2, r0, lsl #8
 8002b78:	40022800 	andmi	r2, r2, r0, lsl #16

08002b7c <_ZN3LCD16lcd_480x272_initEv>:
 8002b7c:	b538      	push	{r3, r4, r5, lr}
 8002b7e:	2328      	movs	r3, #40	; 0x28
 8002b80:	4604      	mov	r4, r0
 8002b82:	62c3      	str	r3, [r0, #44]	; 0x2c
 8002b84:	2309      	movs	r3, #9
 8002b86:	4625      	mov	r5, r4
 8002b88:	6303      	str	r3, [r0, #48]	; 0x30
 8002b8a:	2335      	movs	r3, #53	; 0x35
 8002b8c:	6343      	str	r3, [r0, #52]	; 0x34
 8002b8e:	230b      	movs	r3, #11
 8002b90:	6383      	str	r3, [r0, #56]	; 0x38
 8002b92:	f240 131b 	movw	r3, #283	; 0x11b
 8002b96:	6403      	str	r3, [r0, #64]	; 0x40
 8002b98:	f240 2315 	movw	r3, #533	; 0x215
 8002b9c:	63c3      	str	r3, [r0, #60]	; 0x3c
 8002b9e:	f240 131d 	movw	r3, #285	; 0x11d
 8002ba2:	6483      	str	r3, [r0, #72]	; 0x48
 8002ba4:	f240 2335 	movw	r3, #565	; 0x235
 8002ba8:	6443      	str	r3, [r0, #68]	; 0x44
 8002baa:	f7ff ff2d 	bl	8002a08 <_ZN3LCD23lcd_480x272_ClockConfigEv>
 8002bae:	f44f 73f0 	mov.w	r3, #480	; 0x1e0
 8002bb2:	67a3      	str	r3, [r4, #120]	; 0x78
 8002bb4:	f44f 7388 	mov.w	r3, #272	; 0x110
 8002bb8:	67e3      	str	r3, [r4, #124]	; 0x7c
 8002bba:	2300      	movs	r3, #0
 8002bbc:	f884 304c 	strb.w	r3, [r4, #76]	; 0x4c
 8002bc0:	f884 304d 	strb.w	r3, [r4, #77]	; 0x4d
 8002bc4:	f884 304e 	strb.w	r3, [r4, #78]	; 0x4e
 8002bc8:	61e3      	str	r3, [r4, #28]
 8002bca:	6223      	str	r3, [r4, #32]
 8002bcc:	6263      	str	r3, [r4, #36]	; 0x24
 8002bce:	62a3      	str	r3, [r4, #40]	; 0x28
 8002bd0:	4b0c      	ldr	r3, [pc, #48]	; (8002c04 <_ZN3LCD16lcd_480x272_initEv+0x88>)
 8002bd2:	f845 3f18 	str.w	r3, [r5, #24]!
 8002bd6:	4628      	mov	r0, r5
 8002bd8:	f7ff f9b7 	bl	8001f4a <HAL_LTDC_GetState>
 8002bdc:	b910      	cbnz	r0, 8002be4 <_ZN3LCD16lcd_480x272_initEv+0x68>
 8002bde:	4620      	mov	r0, r4
 8002be0:	f7ff ff20 	bl	8002a24 <_ZN3LCD19lcd_480x272_MspInitEv>
 8002be4:	4628      	mov	r0, r5
 8002be6:	f7ff f8f7 	bl	8001dd8 <HAL_LTDC_Init>
 8002bea:	2201      	movs	r2, #1
 8002bec:	f44f 5180 	mov.w	r1, #4096	; 0x1000
 8002bf0:	4805      	ldr	r0, [pc, #20]	; (8002c08 <_ZN3LCD16lcd_480x272_initEv+0x8c>)
 8002bf2:	f7ff fb23 	bl	800223c <HAL_GPIO_WritePin>
 8002bf6:	2201      	movs	r2, #1
 8002bf8:	2108      	movs	r1, #8
 8002bfa:	4804      	ldr	r0, [pc, #16]	; (8002c0c <_ZN3LCD16lcd_480x272_initEv+0x90>)
 8002bfc:	e8bd 4038 	ldmia.w	sp!, {r3, r4, r5, lr}
 8002c00:	f7ff bb1c 	b.w	800223c <HAL_GPIO_WritePin>
 8002c04:	40016800 	andmi	r6, r1, r0, lsl #16
 8002c08:	40022000 	andmi	r2, r2, r0
 8002c0c:	40022800 	andmi	r2, r2, r0, lsl #16

08002c10 <_ZN3LCD4initEPm>:
 8002c10:	b538      	push	{r3, r4, r5, lr}
 8002c12:	2301      	movs	r3, #1
 8002c14:	4604      	mov	r4, r0
 8002c16:	f8c0 10c0 	str.w	r1, [r0, #192]	; 0xc0
 8002c1a:	2500      	movs	r5, #0
 8002c1c:	7303      	strb	r3, [r0, #12]
 8002c1e:	f7ff ffad 	bl	8002b7c <_ZN3LCD16lcd_480x272_initEv>
 8002c22:	f8d4 30c0 	ldr.w	r3, [r4, #192]	; 0xc0
 8002c26:	4620      	mov	r0, r4
 8002c28:	81e5      	strh	r5, [r4, #14]
 8002c2a:	8225      	strh	r5, [r4, #16]
 8002c2c:	6165      	str	r5, [r4, #20]
 8002c2e:	60a5      	str	r5, [r4, #8]
 8002c30:	e884 0028 	stmia.w	r4, {r3, r5}
 8002c34:	f7ff fd79 	bl	800272a <_ZN3LCD20LayerInit_FullscreenEv>
 8002c38:	f8d4 30c0 	ldr.w	r3, [r4, #192]	; 0xc0
 8002c3c:	4629      	mov	r1, r5
 8002c3e:	4620      	mov	r0, r4
 8002c40:	e884 0028 	stmia.w	r4, {r3, r5}
 8002c44:	f7ff fdca 	bl	80027dc <_ZN3LCD9FillLayerEt>
 8002c48:	4620      	mov	r0, r4
 8002c4a:	f7ff fdbf 	bl	80027cc <_ZN3LCD10SetLayer_2Ev>
 8002c4e:	4629      	mov	r1, r5
 8002c50:	4620      	mov	r0, r4
 8002c52:	f7ff fdc3 	bl	80027dc <_ZN3LCD9FillLayerEt>
 8002c56:	f8d4 30c0 	ldr.w	r3, [r4, #192]	; 0xc0
 8002c5a:	4620      	mov	r0, r4
 8002c5c:	e884 0028 	stmia.w	r4, {r3, r5}
 8002c60:	f7ff fdb4 	bl	80027cc <_ZN3LCD10SetLayer_2Ev>
 8002c64:	4629      	mov	r1, r5
 8002c66:	4620      	mov	r0, r4
 8002c68:	e8bd 4038 	ldmia.w	sp!, {r3, r4, r5, lr}
 8002c6c:	f7ff bdbe 	b.w	80027ec <_ZN3LCD15SetTransparencyEh>

08002c70 <_GLOBAL__sub_I_lcd>:
 8002c70:	4a02      	ldr	r2, [pc, #8]	; (8002c7c <_GLOBAL__sub_I_lcd+0xc>)
 8002c72:	4903      	ldr	r1, [pc, #12]	; (8002c80 <_GLOBAL__sub_I_lcd+0x10>)
 8002c74:	4803      	ldr	r0, [pc, #12]	; (8002c84 <_GLOBAL__sub_I_lcd+0x14>)
 8002c76:	f001 bdeb 	b.w	8004850 <__aeabi_atexit>
 8002c7a:	bf00      	nop
 8002c7c:	20000000 	andcs	r0, r0, r0
 8002c80:	0800271d 	stmdaeq	r0, {r0, r2, r3, r4, r8, r9, sl, sp}
 8002c84:	2000098c 	andcs	r0, r0, ip, lsl #19

08002c88 <_ZN5SDRamD1Ev>:
 8002c88:	4770      	bx	lr

08002c8a <_ZN5SDRam8get_sizeEv>:
 8002c8a:	f44f 0000 	mov.w	r0, #8388608	; 0x800000
 8002c8e:	4770      	bx	lr

08002c90 <_ZN5SDRam8allocateEj>:
 8002c90:	6e03      	ldr	r3, [r0, #96]	; 0x60
 8002c92:	eb03 0181 	add.w	r1, r3, r1, lsl #2
 8002c96:	6601      	str	r1, [r0, #96]	; 0x60
 8002c98:	4618      	mov	r0, r3
 8002c9a:	4770      	bx	lr

08002c9c <_ZN5SDRam27ram_initialization_sequenceEm>:
 8002c9c:	e92d 43f7 	stmdb	sp!, {r0, r1, r2, r4, r5, r6, r7, r8, r9, lr}
 8002ca0:	2300      	movs	r3, #0
 8002ca2:	2201      	movs	r2, #1
 8002ca4:	f100 0650 	add.w	r6, r0, #80	; 0x50
 8002ca8:	4689      	mov	r9, r1
 8002caa:	2110      	movs	r1, #16
 8002cac:	4d20      	ldr	r5, [pc, #128]	; (8002d30 <_ZN5SDRam27ram_initialization_sequenceEm+0x94>)
 8002cae:	6502      	str	r2, [r0, #80]	; 0x50
 8002cb0:	4604      	mov	r4, r0
 8002cb2:	6541      	str	r1, [r0, #84]	; 0x54
 8002cb4:	4631      	mov	r1, r6
 8002cb6:	6582      	str	r2, [r0, #88]	; 0x58
 8002cb8:	f64f 72ff 	movw	r2, #65535	; 0xffff
 8002cbc:	65c3      	str	r3, [r0, #92]	; 0x5c
 8002cbe:	9301      	str	r3, [sp, #4]
 8002cc0:	f7fd fd4f 	bl	8000762 <HAL_SDRAM_SendCommand>
 8002cc4:	3d01      	subs	r5, #1
 8002cc6:	d001      	beq.n	8002ccc <_ZN5SDRam27ram_initialization_sequenceEm+0x30>
 8002cc8:	bf00      	nop
 8002cca:	e7fb      	b.n	8002cc4 <_ZN5SDRam27ram_initialization_sequenceEm+0x28>
 8002ccc:	2710      	movs	r7, #16
 8002cce:	2302      	movs	r3, #2
 8002cd0:	f04f 0801 	mov.w	r8, #1
 8002cd4:	4631      	mov	r1, r6
 8002cd6:	6523      	str	r3, [r4, #80]	; 0x50
 8002cd8:	f64f 72ff 	movw	r2, #65535	; 0xffff
 8002cdc:	6567      	str	r7, [r4, #84]	; 0x54
 8002cde:	4620      	mov	r0, r4
 8002ce0:	f8c4 8058 	str.w	r8, [r4, #88]	; 0x58
 8002ce4:	65e5      	str	r5, [r4, #92]	; 0x5c
 8002ce6:	f7fd fd3c 	bl	8000762 <HAL_SDRAM_SendCommand>
 8002cea:	2303      	movs	r3, #3
 8002cec:	4631      	mov	r1, r6
 8002cee:	6567      	str	r7, [r4, #84]	; 0x54
 8002cf0:	6523      	str	r3, [r4, #80]	; 0x50
 8002cf2:	2308      	movs	r3, #8
 8002cf4:	65e5      	str	r5, [r4, #92]	; 0x5c
 8002cf6:	f64f 72ff 	movw	r2, #65535	; 0xffff
 8002cfa:	65a3      	str	r3, [r4, #88]	; 0x58
 8002cfc:	4620      	mov	r0, r4
 8002cfe:	f7fd fd30 	bl	8000762 <HAL_SDRAM_SendCommand>
 8002d02:	f44f 7308 	mov.w	r3, #544	; 0x220
 8002d06:	f64f 72ff 	movw	r2, #65535	; 0xffff
 8002d0a:	4631      	mov	r1, r6
 8002d0c:	9301      	str	r3, [sp, #4]
 8002d0e:	2304      	movs	r3, #4
 8002d10:	6567      	str	r7, [r4, #84]	; 0x54
 8002d12:	4620      	mov	r0, r4
 8002d14:	6523      	str	r3, [r4, #80]	; 0x50
 8002d16:	9b01      	ldr	r3, [sp, #4]
 8002d18:	f8c4 8058 	str.w	r8, [r4, #88]	; 0x58
 8002d1c:	65e3      	str	r3, [r4, #92]	; 0x5c
 8002d1e:	f7fd fd20 	bl	8000762 <HAL_SDRAM_SendCommand>
 8002d22:	4649      	mov	r1, r9
 8002d24:	4620      	mov	r0, r4
 8002d26:	f7fd fd33 	bl	8000790 <HAL_SDRAM_ProgramRefreshRate>
 8002d2a:	b003      	add	sp, #12
 8002d2c:	e8bd 83f0 	ldmia.w	sp!, {r4, r5, r6, r7, r8, r9, pc}
 8002d30:	00034bc1 	andeq	r4, r3, r1, asr #23

08002d34 <_ZN5SDRam8msp_initEv>:
 8002d34:	b510      	push	{r4, lr}
 8002d36:	4b3e      	ldr	r3, [pc, #248]	; (8002e30 <_ZN5SDRam8msp_initEv+0xfc>)
 8002d38:	b08c      	sub	sp, #48	; 0x30
 8002d3a:	2200      	movs	r2, #0
 8002d3c:	483d      	ldr	r0, [pc, #244]	; (8002e34 <_ZN5SDRam8msp_initEv+0x100>)
 8002d3e:	ac0c      	add	r4, sp, #48	; 0x30
 8002d40:	9200      	str	r2, [sp, #0]
 8002d42:	6b99      	ldr	r1, [r3, #56]	; 0x38
 8002d44:	f041 0101 	orr.w	r1, r1, #1
 8002d48:	6399      	str	r1, [r3, #56]	; 0x38
 8002d4a:	6b99      	ldr	r1, [r3, #56]	; 0x38
 8002d4c:	f001 0101 	and.w	r1, r1, #1
 8002d50:	9100      	str	r1, [sp, #0]
 8002d52:	9900      	ldr	r1, [sp, #0]
 8002d54:	9201      	str	r2, [sp, #4]
 8002d56:	6b19      	ldr	r1, [r3, #48]	; 0x30
 8002d58:	f041 0104 	orr.w	r1, r1, #4
 8002d5c:	6319      	str	r1, [r3, #48]	; 0x30
 8002d5e:	6b19      	ldr	r1, [r3, #48]	; 0x30
 8002d60:	f001 0104 	and.w	r1, r1, #4
 8002d64:	9101      	str	r1, [sp, #4]
 8002d66:	9901      	ldr	r1, [sp, #4]
 8002d68:	9202      	str	r2, [sp, #8]
 8002d6a:	6b19      	ldr	r1, [r3, #48]	; 0x30
 8002d6c:	f041 0108 	orr.w	r1, r1, #8
 8002d70:	6319      	str	r1, [r3, #48]	; 0x30
 8002d72:	6b19      	ldr	r1, [r3, #48]	; 0x30
 8002d74:	f001 0108 	and.w	r1, r1, #8
 8002d78:	9102      	str	r1, [sp, #8]
 8002d7a:	9902      	ldr	r1, [sp, #8]
 8002d7c:	9203      	str	r2, [sp, #12]
 8002d7e:	6b19      	ldr	r1, [r3, #48]	; 0x30
 8002d80:	f041 0110 	orr.w	r1, r1, #16
 8002d84:	6319      	str	r1, [r3, #48]	; 0x30
 8002d86:	6b19      	ldr	r1, [r3, #48]	; 0x30
 8002d88:	f001 0110 	and.w	r1, r1, #16
 8002d8c:	9103      	str	r1, [sp, #12]
 8002d8e:	9903      	ldr	r1, [sp, #12]
 8002d90:	9204      	str	r2, [sp, #16]
 8002d92:	6b19      	ldr	r1, [r3, #48]	; 0x30
 8002d94:	f041 0120 	orr.w	r1, r1, #32
 8002d98:	6319      	str	r1, [r3, #48]	; 0x30
 8002d9a:	6b19      	ldr	r1, [r3, #48]	; 0x30
 8002d9c:	f001 0120 	and.w	r1, r1, #32
 8002da0:	9104      	str	r1, [sp, #16]
 8002da2:	9904      	ldr	r1, [sp, #16]
 8002da4:	9205      	str	r2, [sp, #20]
 8002da6:	6b19      	ldr	r1, [r3, #48]	; 0x30
 8002da8:	f041 0140 	orr.w	r1, r1, #64	; 0x40
 8002dac:	6319      	str	r1, [r3, #48]	; 0x30
 8002dae:	6b19      	ldr	r1, [r3, #48]	; 0x30
 8002db0:	f001 0140 	and.w	r1, r1, #64	; 0x40
 8002db4:	9105      	str	r1, [sp, #20]
 8002db6:	9905      	ldr	r1, [sp, #20]
 8002db8:	9206      	str	r2, [sp, #24]
 8002dba:	6b1a      	ldr	r2, [r3, #48]	; 0x30
 8002dbc:	f042 0280 	orr.w	r2, r2, #128	; 0x80
 8002dc0:	631a      	str	r2, [r3, #48]	; 0x30
 8002dc2:	2201      	movs	r2, #1
 8002dc4:	6b1b      	ldr	r3, [r3, #48]	; 0x30
 8002dc6:	9209      	str	r2, [sp, #36]	; 0x24
 8002dc8:	f003 0380 	and.w	r3, r3, #128	; 0x80
 8002dcc:	9306      	str	r3, [sp, #24]
 8002dce:	9b06      	ldr	r3, [sp, #24]
 8002dd0:	2302      	movs	r3, #2
 8002dd2:	9308      	str	r3, [sp, #32]
 8002dd4:	930a      	str	r3, [sp, #40]	; 0x28
 8002dd6:	230c      	movs	r3, #12
 8002dd8:	930b      	str	r3, [sp, #44]	; 0x2c
 8002dda:	2308      	movs	r3, #8
 8002ddc:	f844 3d14 	str.w	r3, [r4, #-20]!
 8002de0:	4621      	mov	r1, r4
 8002de2:	f7ff f93d 	bl	8002060 <HAL_GPIO_Init>
 8002de6:	f24c 730b 	movw	r3, #50955	; 0xc70b
 8002dea:	4621      	mov	r1, r4
 8002dec:	4812      	ldr	r0, [pc, #72]	; (8002e38 <_ZN5SDRam8msp_initEv+0x104>)
 8002dee:	9307      	str	r3, [sp, #28]
 8002df0:	f7ff f936 	bl	8002060 <HAL_GPIO_Init>
 8002df4:	f64f 7383 	movw	r3, #65411	; 0xff83
 8002df8:	4621      	mov	r1, r4
 8002dfa:	4810      	ldr	r0, [pc, #64]	; (8002e3c <_ZN5SDRam8msp_initEv+0x108>)
 8002dfc:	9307      	str	r3, [sp, #28]
 8002dfe:	f7ff f92f 	bl	8002060 <HAL_GPIO_Init>
 8002e02:	f64f 033f 	movw	r3, #63551	; 0xf83f
 8002e06:	4621      	mov	r1, r4
 8002e08:	480d      	ldr	r0, [pc, #52]	; (8002e40 <_ZN5SDRam8msp_initEv+0x10c>)
 8002e0a:	9307      	str	r3, [sp, #28]
 8002e0c:	f7ff f928 	bl	8002060 <HAL_GPIO_Init>
 8002e10:	f248 1333 	movw	r3, #33075	; 0x8133
 8002e14:	4621      	mov	r1, r4
 8002e16:	480b      	ldr	r0, [pc, #44]	; (8002e44 <_ZN5SDRam8msp_initEv+0x110>)
 8002e18:	9307      	str	r3, [sp, #28]
 8002e1a:	f7ff f921 	bl	8002060 <HAL_GPIO_Init>
 8002e1e:	2328      	movs	r3, #40	; 0x28
 8002e20:	4621      	mov	r1, r4
 8002e22:	4809      	ldr	r0, [pc, #36]	; (8002e48 <_ZN5SDRam8msp_initEv+0x114>)
 8002e24:	9307      	str	r3, [sp, #28]
 8002e26:	f7ff f91b 	bl	8002060 <HAL_GPIO_Init>
 8002e2a:	b00c      	add	sp, #48	; 0x30
 8002e2c:	bd10      	pop	{r4, pc}
 8002e2e:	bf00      	nop
 8002e30:	40023800 	andmi	r3, r2, r0, lsl #16
 8002e34:	40020800 	andmi	r0, r2, r0, lsl #16
 8002e38:	40020c00 	andmi	r0, r2, r0, lsl #24
 8002e3c:	40021000 	andmi	r1, r2, r0
 8002e40:	40021400 	andmi	r1, r2, r0, lsl #8
 8002e44:	40021800 	andmi	r1, r2, r0, lsl #16
 8002e48:	40021c00 	andmi	r1, r2, r0, lsl #24

08002e4c <_ZN5SDRam8ram_initEv>:
 8002e4c:	2204      	movs	r2, #4
 8002e4e:	4b17      	ldr	r3, [pc, #92]	; (8002eac <_ZN5SDRam8ram_initEv+0x60>)
 8002e50:	2107      	movs	r1, #7
 8002e52:	b510      	push	{r4, lr}
 8002e54:	63c2      	str	r2, [r0, #60]	; 0x3c
 8002e56:	4604      	mov	r4, r0
 8002e58:	60c2      	str	r2, [r0, #12]
 8002e5a:	2210      	movs	r2, #16
 8002e5c:	6003      	str	r3, [r0, #0]
 8002e5e:	2302      	movs	r3, #2
 8002e60:	6102      	str	r2, [r0, #16]
 8002e62:	2240      	movs	r2, #64	; 0x40
 8002e64:	6343      	str	r3, [r0, #52]	; 0x34
 8002e66:	6142      	str	r2, [r0, #20]
 8002e68:	f44f 7280 	mov.w	r2, #256	; 0x100
 8002e6c:	6443      	str	r3, [r0, #68]	; 0x44
 8002e6e:	6182      	str	r2, [r0, #24]
 8002e70:	f44f 6200 	mov.w	r2, #2048	; 0x800
 8002e74:	6483      	str	r3, [r0, #72]	; 0x48
 8002e76:	64c3      	str	r3, [r0, #76]	; 0x4c
 8002e78:	2300      	movs	r3, #0
 8002e7a:	6202      	str	r2, [r0, #32]
 8002e7c:	f44f 5280 	mov.w	r2, #4096	; 0x1000
 8002e80:	6381      	str	r1, [r0, #56]	; 0x38
 8002e82:	6401      	str	r1, [r0, #64]	; 0x40
 8002e84:	6043      	str	r3, [r0, #4]
 8002e86:	6083      	str	r3, [r0, #8]
 8002e88:	61c3      	str	r3, [r0, #28]
 8002e8a:	6242      	str	r2, [r0, #36]	; 0x24
 8002e8c:	6283      	str	r3, [r0, #40]	; 0x28
 8002e8e:	f7ff ff51 	bl	8002d34 <_ZN5SDRam8msp_initEv>
 8002e92:	f104 0134 	add.w	r1, r4, #52	; 0x34
 8002e96:	4620      	mov	r0, r4
 8002e98:	f7fd fc43 	bl	8000722 <HAL_SDRAM_Init>
 8002e9c:	4620      	mov	r0, r4
 8002e9e:	f240 6103 	movw	r1, #1539	; 0x603
 8002ea2:	e8bd 4010 	ldmia.w	sp!, {r4, lr}
 8002ea6:	f7ff bef9 	b.w	8002c9c <_ZN5SDRam27ram_initialization_sequenceEm>
 8002eaa:	bf00      	nop
 8002eac:	a0000140 	andge	r0, r0, r0, asr #2

08002eb0 <_ZN5SDRam4initEb>:
 8002eb0:	b538      	push	{r3, r4, r5, lr}
 8002eb2:	460d      	mov	r5, r1
 8002eb4:	4604      	mov	r4, r0
 8002eb6:	f7ff ffc9 	bl	8002e4c <_ZN5SDRam8ram_initEv>
 8002eba:	4817      	ldr	r0, [pc, #92]	; (8002f18 <_ZN5SDRam4initEb+0x68>)
 8002ebc:	b31d      	cbz	r5, 8002f06 <_ZN5SDRam4initEb+0x56>
 8002ebe:	4b17      	ldr	r3, [pc, #92]	; (8002f1c <_ZN5SDRam4initEb+0x6c>)
 8002ec0:	211b      	movs	r1, #27
 8002ec2:	4a17      	ldr	r2, [pc, #92]	; (8002f20 <_ZN5SDRam4initEb+0x70>)
 8002ec4:	4348      	muls	r0, r1
 8002ec6:	3037      	adds	r0, #55	; 0x37
 8002ec8:	f843 0f04 	str.w	r0, [r3, #4]!
 8002ecc:	4293      	cmp	r3, r2
 8002ece:	d1f9      	bne.n	8002ec4 <_ZN5SDRam4initEb+0x14>
 8002ed0:	f04f 4240 	mov.w	r2, #3221225472	; 0xc0000000
 8002ed4:	4b10      	ldr	r3, [pc, #64]	; (8002f18 <_ZN5SDRam4initEb+0x68>)
 8002ed6:	2000      	movs	r0, #0
 8002ed8:	251b      	movs	r5, #27
 8002eda:	436b      	muls	r3, r5
 8002edc:	f852 1b04 	ldr.w	r1, [r2], #4
 8002ee0:	3337      	adds	r3, #55	; 0x37
 8002ee2:	428b      	cmp	r3, r1
 8002ee4:	bf18      	it	ne
 8002ee6:	f04f 30ff 	movne.w	r0, #4294967295	; 0xffffffff
 8002eea:	f112 5f7e 	cmn.w	r2, #1065353216	; 0x3f800000
 8002eee:	d1f4      	bne.n	8002eda <_ZN5SDRam4initEb+0x2a>
 8002ef0:	4b0a      	ldr	r3, [pc, #40]	; (8002f1c <_ZN5SDRam4initEb+0x6c>)
 8002ef2:	2100      	movs	r1, #0
 8002ef4:	4a0a      	ldr	r2, [pc, #40]	; (8002f20 <_ZN5SDRam4initEb+0x70>)
 8002ef6:	f843 1f04 	str.w	r1, [r3, #4]!
 8002efa:	4293      	cmp	r3, r2
 8002efc:	d1fb      	bne.n	8002ef6 <_ZN5SDRam4initEb+0x46>
 8002efe:	f04f 4340 	mov.w	r3, #3221225472	; 0xc0000000
 8002f02:	6623      	str	r3, [r4, #96]	; 0x60
 8002f04:	bd38      	pop	{r3, r4, r5, pc}
 8002f06:	f04f 4340 	mov.w	r3, #3221225472	; 0xc0000000
 8002f0a:	6018      	str	r0, [r3, #0]
 8002f0c:	681b      	ldr	r3, [r3, #0]
 8002f0e:	1a18      	subs	r0, r3, r0
 8002f10:	bf18      	it	ne
 8002f12:	f04f 30ff 	movne.w	r0, #4294967295	; 0xffffffff
 8002f16:	e7eb      	b.n	8002ef0 <_ZN5SDRam4initEb+0x40>
 8002f18:	cafe1234 	bgt	7f877f0 <_Min_Stack_Size+0x7f873f0>
 8002f1c:	bffffffc 	svclt	0x00fffffc
 8002f20:	c07ffffc 	ldrshtgt	pc, [pc], #-252	; <UNPREDICTABLE>

08002f24 <_GLOBAL__sub_I_sdram>:
 8002f24:	4a02      	ldr	r2, [pc, #8]	; (8002f30 <_GLOBAL__sub_I_sdram+0xc>)
 8002f26:	4903      	ldr	r1, [pc, #12]	; (8002f34 <_GLOBAL__sub_I_sdram+0x10>)
 8002f28:	4803      	ldr	r0, [pc, #12]	; (8002f38 <_GLOBAL__sub_I_sdram+0x14>)
 8002f2a:	f001 bc91 	b.w	8004850 <__aeabi_atexit>
 8002f2e:	bf00      	nop
 8002f30:	20000000 	andcs	r0, r0, r0
 8002f34:	08002c89 	stmdaeq	r0, {r0, r3, r7, sl, fp, sp}
 8002f38:	20000a50 	andcs	r0, r0, r0, asr sl

08002f3c <_ZN12NetReluLayer7forwardEPaS0_>:
 8002f3c:	b570      	push	{r4, r5, r6, lr}
 8002f3e:	3a01      	subs	r2, #1
 8002f40:	460b      	mov	r3, r1
 8002f42:	2500      	movs	r5, #0
 8002f44:	1a5c      	subs	r4, r3, r1
 8002f46:	6a86      	ldr	r6, [r0, #40]	; 0x28
 8002f48:	42a6      	cmp	r6, r4
 8002f4a:	d909      	bls.n	8002f60 <_ZN12NetReluLayer7forwardEPaS0_+0x24>
 8002f4c:	f912 4f01 	ldrsb.w	r4, [r2, #1]!
 8002f50:	3301      	adds	r3, #1
 8002f52:	2c00      	cmp	r4, #0
 8002f54:	bfb4      	ite	lt
 8002f56:	f803 5c01 	strblt.w	r5, [r3, #-1]
 8002f5a:	f803 4c01 	strbge.w	r4, [r3, #-1]
 8002f5e:	e7f1      	b.n	8002f44 <_ZN12NetReluLayer7forwardEPaS0_+0x8>
 8002f60:	bd70      	pop	{r4, r5, r6, pc}
 8002f62:	0000      	movs	r0, r0

08002f64 <_ZN12NetReluLayerD1Ev>:
 8002f64:	4b03      	ldr	r3, [pc, #12]	; (8002f74 <_ZN12NetReluLayerD1Ev+0x10>)
 8002f66:	b510      	push	{r4, lr}
 8002f68:	4604      	mov	r4, r0
 8002f6a:	6003      	str	r3, [r0, #0]
 8002f6c:	f000 fe15 	bl	8003b9a <_ZN12NetworkLayerD1Ev>
 8002f70:	4620      	mov	r0, r4
 8002f72:	bd10      	pop	{r4, pc}
 8002f74:	08004f14 	stmdaeq	r0, {r2, r4, r8, r9, sl, fp, lr}

08002f78 <_ZN12NetReluLayerD0Ev>:
 8002f78:	b510      	push	{r4, lr}
 8002f7a:	4604      	mov	r4, r0
 8002f7c:	f7ff fff2 	bl	8002f64 <_ZN12NetReluLayerD1Ev>
 8002f80:	4620      	mov	r0, r4
 8002f82:	f7ff f985 	bl	8002290 <_ZdlPv>
 8002f86:	4620      	mov	r0, r4
 8002f88:	bd10      	pop	{r4, pc}
 8002f8a:	0000      	movs	r0, r0

08002f8c <_ZN12NetReluLayerC1E14sLayerGeometryS0_S0_>:
 8002f8c:	b530      	push	{r4, r5, lr}
 8002f8e:	b085      	sub	sp, #20
 8002f90:	4604      	mov	r4, r0
 8002f92:	ad01      	add	r5, sp, #4
 8002f94:	e885 000e 	stmia.w	r5, {r1, r2, r3}
 8002f98:	f000 fe08 	bl	8003bac <_ZN12NetworkLayerC1Ev>
 8002f9c:	4623      	mov	r3, r4
 8002f9e:	4a0d      	ldr	r2, [pc, #52]	; (8002fd4 <_ZN12NetReluLayerC1E14sLayerGeometryS0_S0_+0x48>)
 8002fa0:	f843 2b1c 	str.w	r2, [r3], #28
 8002fa4:	e895 0007 	ldmia.w	r5, {r0, r1, r2}
 8002fa8:	e883 0007 	stmia.w	r3, {r0, r1, r2}
 8002fac:	aa08      	add	r2, sp, #32
 8002fae:	1d23      	adds	r3, r4, #4
 8002fb0:	ca07      	ldmia	r2, {r0, r1, r2}
 8002fb2:	e883 0007 	stmia.w	r3, {r0, r1, r2}
 8002fb6:	aa0b      	add	r2, sp, #44	; 0x2c
 8002fb8:	f104 0310 	add.w	r3, r4, #16
 8002fbc:	ca07      	ldmia	r2, {r0, r1, r2}
 8002fbe:	e883 0007 	stmia.w	r3, {r0, r1, r2}
 8002fc2:	68a3      	ldr	r3, [r4, #8]
 8002fc4:	4620      	mov	r0, r4
 8002fc6:	6862      	ldr	r2, [r4, #4]
 8002fc8:	435a      	muls	r2, r3
 8002fca:	68e3      	ldr	r3, [r4, #12]
 8002fcc:	4353      	muls	r3, r2
 8002fce:	62a3      	str	r3, [r4, #40]	; 0x28
 8002fd0:	b005      	add	sp, #20
 8002fd2:	bd30      	pop	{r4, r5, pc}
 8002fd4:	08004f14 	stmdaeq	r0, {r2, r4, r8, r9, sl, fp, lr}

08002fd8 <_ZN24NetDenseConvolutionLayerD1Ev>:
 8002fd8:	4b03      	ldr	r3, [pc, #12]	; (8002fe8 <_ZN24NetDenseConvolutionLayerD1Ev+0x10>)
 8002fda:	b510      	push	{r4, lr}
 8002fdc:	4604      	mov	r4, r0
 8002fde:	6003      	str	r3, [r0, #0]
 8002fe0:	f000 fddb 	bl	8003b9a <_ZN12NetworkLayerD1Ev>
 8002fe4:	4620      	mov	r0, r4
 8002fe6:	bd10      	pop	{r4, pc}
 8002fe8:	08004f28 	stmdaeq	r0, {r3, r5, r8, r9, sl, fp, lr}

08002fec <_ZN24NetDenseConvolutionLayerD0Ev>:
 8002fec:	b510      	push	{r4, lr}
 8002fee:	4604      	mov	r4, r0
 8002ff0:	f7ff fff2 	bl	8002fd8 <_ZN24NetDenseConvolutionLayerD1Ev>
 8002ff4:	4620      	mov	r0, r4
 8002ff6:	f7ff f94b 	bl	8002290 <_ZdlPv>
 8002ffa:	4620      	mov	r0, r4
 8002ffc:	bd10      	pop	{r4, pc}

08002ffe <_ZN24NetDenseConvolutionLayer7forwardEPaS0_>:
 8002ffe:	b570      	push	{r4, r5, r6, lr}
 8003000:	4615      	mov	r5, r2
 8003002:	b088      	sub	sp, #32
 8003004:	f100 021c 	add.w	r2, r0, #28
 8003008:	4604      	mov	r4, r0
 800300a:	460e      	mov	r6, r1
 800300c:	ab05      	add	r3, sp, #20
 800300e:	ca07      	ldmia	r2, {r0, r1, r2}
 8003010:	e883 0007 	stmia.w	r3, {r0, r1, r2}
 8003014:	1d22      	adds	r2, r4, #4
 8003016:	ab02      	add	r3, sp, #8
 8003018:	ca07      	ldmia	r2, {r0, r1, r2}
 800301a:	e883 0007 	stmia.w	r3, {r0, r1, r2}
 800301e:	6b63      	ldr	r3, [r4, #52]	; 0x34
 8003020:	4629      	mov	r1, r5
 8003022:	6aa2      	ldr	r2, [r4, #40]	; 0x28
 8003024:	4630      	mov	r0, r6
 8003026:	9301      	str	r3, [sp, #4]
 8003028:	6b23      	ldr	r3, [r4, #48]	; 0x30
 800302a:	9300      	str	r3, [sp, #0]
 800302c:	6ae3      	ldr	r3, [r4, #44]	; 0x2c
 800302e:	f000 fd33 	bl	8003a98 <_Z26network_convolution_kernelPaS_S_S_ii14sLayerGeometryS0_>
 8003032:	6863      	ldr	r3, [r4, #4]
 8003034:	68a1      	ldr	r1, [r4, #8]
 8003036:	4359      	muls	r1, r3
 8003038:	6a63      	ldr	r3, [r4, #36]	; 0x24
 800303a:	fb03 6101 	mla	r1, r3, r1, r6
 800303e:	462b      	mov	r3, r5
 8003040:	68a2      	ldr	r2, [r4, #8]
 8003042:	6860      	ldr	r0, [r4, #4]
 8003044:	4350      	muls	r0, r2
 8003046:	68e2      	ldr	r2, [r4, #12]
 8003048:	4342      	muls	r2, r0
 800304a:	1b58      	subs	r0, r3, r5
 800304c:	4282      	cmp	r2, r0
 800304e:	d904      	bls.n	800305a <_ZN24NetDenseConvolutionLayer7forwardEPaS0_+0x5c>
 8003050:	f913 2b01 	ldrsb.w	r2, [r3], #1
 8003054:	f801 2b01 	strb.w	r2, [r1], #1
 8003058:	e7f2      	b.n	8003040 <_ZN24NetDenseConvolutionLayer7forwardEPaS0_+0x42>
 800305a:	b008      	add	sp, #32
 800305c:	bd70      	pop	{r4, r5, r6, pc}
 800305e:	0000      	movs	r0, r0

08003060 <_ZN24NetDenseConvolutionLayerC1E14sLayerGeometryS0_S0_PKaS2_ii>:
 8003060:	b530      	push	{r4, r5, lr}
 8003062:	b085      	sub	sp, #20
 8003064:	4604      	mov	r4, r0
 8003066:	ad01      	add	r5, sp, #4
 8003068:	e885 000e 	stmia.w	r5, {r1, r2, r3}
 800306c:	f000 fd9e 	bl	8003bac <_ZN12NetworkLayerC1Ev>
 8003070:	4623      	mov	r3, r4
 8003072:	4a0e      	ldr	r2, [pc, #56]	; (80030ac <_ZN24NetDenseConvolutionLayerC1E14sLayerGeometryS0_S0_PKaS2_ii+0x4c>)
 8003074:	f843 2b1c 	str.w	r2, [r3], #28
 8003078:	e895 0007 	ldmia.w	r5, {r0, r1, r2}
 800307c:	e883 0007 	stmia.w	r3, {r0, r1, r2}
 8003080:	aa08      	add	r2, sp, #32
 8003082:	1d23      	adds	r3, r4, #4
 8003084:	ca07      	ldmia	r2, {r0, r1, r2}
 8003086:	e883 0007 	stmia.w	r3, {r0, r1, r2}
 800308a:	aa0b      	add	r2, sp, #44	; 0x2c
 800308c:	f104 0310 	add.w	r3, r4, #16
 8003090:	ca07      	ldmia	r2, {r0, r1, r2}
 8003092:	e883 0007 	stmia.w	r3, {r0, r1, r2}
 8003096:	9b0e      	ldr	r3, [sp, #56]	; 0x38
 8003098:	4620      	mov	r0, r4
 800309a:	62a3      	str	r3, [r4, #40]	; 0x28
 800309c:	9b0f      	ldr	r3, [sp, #60]	; 0x3c
 800309e:	62e3      	str	r3, [r4, #44]	; 0x2c
 80030a0:	9b10      	ldr	r3, [sp, #64]	; 0x40
 80030a2:	6323      	str	r3, [r4, #48]	; 0x30
 80030a4:	9b11      	ldr	r3, [sp, #68]	; 0x44
 80030a6:	6363      	str	r3, [r4, #52]	; 0x34
 80030a8:	b005      	add	sp, #20
 80030aa:	bd30      	pop	{r4, r5, pc}
 80030ac:	08004f28 	stmdaeq	r0, {r3, r5, r8, r9, sl, fp, lr}

080030b0 <_ZN18NetMaxPoolingLayerD1Ev>:
 80030b0:	4b03      	ldr	r3, [pc, #12]	; (80030c0 <_ZN18NetMaxPoolingLayerD1Ev+0x10>)
 80030b2:	b510      	push	{r4, lr}
 80030b4:	4604      	mov	r4, r0
 80030b6:	6003      	str	r3, [r0, #0]
 80030b8:	f000 fd6f 	bl	8003b9a <_ZN12NetworkLayerD1Ev>
 80030bc:	4620      	mov	r0, r4
 80030be:	bd10      	pop	{r4, pc}
 80030c0:	08004f3c 	stmdaeq	r0, {r2, r3, r4, r5, r8, r9, sl, fp, lr}

080030c4 <_ZN18NetMaxPoolingLayerD0Ev>:
 80030c4:	b510      	push	{r4, lr}
 80030c6:	4604      	mov	r4, r0
 80030c8:	f7ff fff2 	bl	80030b0 <_ZN18NetMaxPoolingLayerD1Ev>
 80030cc:	4620      	mov	r0, r4
 80030ce:	f7ff f8df 	bl	8002290 <_ZdlPv>
 80030d2:	4620      	mov	r0, r4
 80030d4:	bd10      	pop	{r4, pc}

080030d6 <_ZN18NetMaxPoolingLayer7forwardEPaS0_>:
 80030d6:	e92d 4ff0 	stmdb	sp!, {r4, r5, r6, r7, r8, r9, sl, fp, lr}
 80030da:	69c3      	ldr	r3, [r0, #28]
 80030dc:	b089      	sub	sp, #36	; 0x24
 80030de:	9301      	str	r3, [sp, #4]
 80030e0:	3b02      	subs	r3, #2
 80030e2:	9200      	str	r2, [sp, #0]
 80030e4:	2b03      	cmp	r3, #3
 80030e6:	f200 8133 	bhi.w	8003350 <_ZN18NetMaxPoolingLayer7forwardEPaS0_+0x27a>
 80030ea:	e8df f013 	tbh	[pc, r3, lsl #1]
 80030ee:	00550004 	subseq	r0, r5, r4
 80030f2:	00e900a1 	rsceq	r0, r9, r1, lsr #1
 80030f6:	6903      	ldr	r3, [r0, #16]
 80030f8:	2600      	movs	r6, #0
 80030fa:	f8d0 e014 	ldr.w	lr, [r0, #20]
 80030fe:	6982      	ldr	r2, [r0, #24]
 8003100:	ea4f 0943 	mov.w	r9, r3, lsl #1
 8003104:	4637      	mov	r7, r6
 8003106:	9203      	str	r2, [sp, #12]
 8003108:	ea4f 024e 	mov.w	r2, lr, lsl #1
 800310c:	fb09 f202 	mul.w	r2, r9, r2
 8003110:	9202      	str	r2, [sp, #8]
 8003112:	fb0e f203 	mul.w	r2, lr, r3
 8003116:	9201      	str	r2, [sp, #4]
 8003118:	009a      	lsls	r2, r3, #2
 800311a:	9204      	str	r2, [sp, #16]
 800311c:	9a03      	ldr	r2, [sp, #12]
 800311e:	4297      	cmp	r7, r2
 8003120:	f000 8116 	beq.w	8003350 <_ZN18NetMaxPoolingLayer7forwardEPaS0_+0x27a>
 8003124:	468c      	mov	ip, r1
 8003126:	4632      	mov	r2, r6
 8003128:	f04f 0800 	mov.w	r8, #0
 800312c:	45f0      	cmp	r8, lr
 800312e:	d02d      	beq.n	800318c <_ZN18NetMaxPoolingLayer7forwardEPaS0_+0xb6>
 8003130:	9800      	ldr	r0, [sp, #0]
 8003132:	eb09 0a02 	add.w	sl, r9, r2
 8003136:	9c00      	ldr	r4, [sp, #0]
 8003138:	1885      	adds	r5, r0, r2
 800313a:	2000      	movs	r0, #0
 800313c:	4454      	add	r4, sl
 800313e:	9406      	str	r4, [sp, #24]
 8003140:	4298      	cmp	r0, r3
 8003142:	f105 0502 	add.w	r5, r5, #2
 8003146:	d01b      	beq.n	8003180 <_ZN18NetMaxPoolingLayer7forwardEPaS0_+0xaa>
 8003148:	f915 bc01 	ldrsb.w	fp, [r5, #-1]
 800314c:	f915 4c02 	ldrsb.w	r4, [r5, #-2]
 8003150:	45a3      	cmp	fp, r4
 8003152:	bfb8      	it	lt
 8003154:	46a3      	movlt	fp, r4
 8003156:	1aac      	subs	r4, r5, r2
 8003158:	4454      	add	r4, sl
 800315a:	ea2b 7beb 	bic.w	fp, fp, fp, asr #31
 800315e:	f914 4c01 	ldrsb.w	r4, [r4, #-1]
 8003162:	455c      	cmp	r4, fp
 8003164:	bfb8      	it	lt
 8003166:	465c      	movlt	r4, fp
 8003168:	9405      	str	r4, [sp, #20]
 800316a:	9c06      	ldr	r4, [sp, #24]
 800316c:	f914 b010 	ldrsb.w	fp, [r4, r0, lsl #1]
 8003170:	9c05      	ldr	r4, [sp, #20]
 8003172:	455c      	cmp	r4, fp
 8003174:	bfb8      	it	lt
 8003176:	465c      	movlt	r4, fp
 8003178:	f80c 4000 	strb.w	r4, [ip, r0]
 800317c:	3001      	adds	r0, #1
 800317e:	e7df      	b.n	8003140 <_ZN18NetMaxPoolingLayer7forwardEPaS0_+0x6a>
 8003180:	9804      	ldr	r0, [sp, #16]
 8003182:	f108 0801 	add.w	r8, r8, #1
 8003186:	449c      	add	ip, r3
 8003188:	4402      	add	r2, r0
 800318a:	e7cf      	b.n	800312c <_ZN18NetMaxPoolingLayer7forwardEPaS0_+0x56>
 800318c:	9a02      	ldr	r2, [sp, #8]
 800318e:	3701      	adds	r7, #1
 8003190:	4416      	add	r6, r2
 8003192:	9a01      	ldr	r2, [sp, #4]
 8003194:	4411      	add	r1, r2
 8003196:	e7c1      	b.n	800311c <_ZN18NetMaxPoolingLayer7forwardEPaS0_+0x46>
 8003198:	6945      	ldr	r5, [r0, #20]
 800319a:	468a      	mov	sl, r1
 800319c:	6983      	ldr	r3, [r0, #24]
 800319e:	2100      	movs	r1, #0
 80031a0:	6904      	ldr	r4, [r0, #16]
 80031a2:	9307      	str	r3, [sp, #28]
 80031a4:	468b      	mov	fp, r1
 80031a6:	fb05 f304 	mul.w	r3, r5, r4
 80031aa:	eb04 0044 	add.w	r0, r4, r4, lsl #1
 80031ae:	9304      	str	r3, [sp, #16]
 80031b0:	eb05 0345 	add.w	r3, r5, r5, lsl #1
 80031b4:	4343      	muls	r3, r0
 80031b6:	9303      	str	r3, [sp, #12]
 80031b8:	eb00 0340 	add.w	r3, r0, r0, lsl #1
 80031bc:	9305      	str	r3, [sp, #20]
 80031be:	9b07      	ldr	r3, [sp, #28]
 80031c0:	459b      	cmp	fp, r3
 80031c2:	f000 80c5 	beq.w	8003350 <_ZN18NetMaxPoolingLayer7forwardEPaS0_+0x27a>
 80031c6:	4657      	mov	r7, sl
 80031c8:	f04f 0e00 	mov.w	lr, #0
 80031cc:	9102      	str	r1, [sp, #8]
 80031ce:	45ae      	cmp	lr, r5
 80031d0:	d027      	beq.n	8003222 <_ZN18NetMaxPoolingLayer7forwardEPaS0_+0x14c>
 80031d2:	2200      	movs	r2, #0
 80031d4:	42a2      	cmp	r2, r4
 80031d6:	d01c      	beq.n	8003212 <_ZN18NetMaxPoolingLayer7forwardEPaS0_+0x13c>
 80031d8:	9e02      	ldr	r6, [sp, #8]
 80031da:	eb02 0342 	add.w	r3, r2, r2, lsl #1
 80031de:	f8dd 8004 	ldr.w	r8, [sp, #4]
 80031e2:	f04f 0c00 	mov.w	ip, #0
 80031e6:	4433      	add	r3, r6
 80031e8:	9e00      	ldr	r6, [sp, #0]
 80031ea:	4433      	add	r3, r6
 80031ec:	1cde      	adds	r6, r3, #3
 80031ee:	4699      	mov	r9, r3
 80031f0:	9606      	str	r6, [sp, #24]
 80031f2:	f919 6b01 	ldrsb.w	r6, [r9], #1
 80031f6:	45b4      	cmp	ip, r6
 80031f8:	bfb8      	it	lt
 80031fa:	46b4      	movlt	ip, r6
 80031fc:	9e06      	ldr	r6, [sp, #24]
 80031fe:	454e      	cmp	r6, r9
 8003200:	d1f7      	bne.n	80031f2 <_ZN18NetMaxPoolingLayer7forwardEPaS0_+0x11c>
 8003202:	f1b8 0801 	subs.w	r8, r8, #1
 8003206:	4403      	add	r3, r0
 8003208:	d1f0      	bne.n	80031ec <_ZN18NetMaxPoolingLayer7forwardEPaS0_+0x116>
 800320a:	f807 c002 	strb.w	ip, [r7, r2]
 800320e:	3201      	adds	r2, #1
 8003210:	e7e0      	b.n	80031d4 <_ZN18NetMaxPoolingLayer7forwardEPaS0_+0xfe>
 8003212:	9a02      	ldr	r2, [sp, #8]
 8003214:	f10e 0e01 	add.w	lr, lr, #1
 8003218:	9b05      	ldr	r3, [sp, #20]
 800321a:	4427      	add	r7, r4
 800321c:	441a      	add	r2, r3
 800321e:	9202      	str	r2, [sp, #8]
 8003220:	e7d5      	b.n	80031ce <_ZN18NetMaxPoolingLayer7forwardEPaS0_+0xf8>
 8003222:	9b04      	ldr	r3, [sp, #16]
 8003224:	f10b 0b01 	add.w	fp, fp, #1
 8003228:	449a      	add	sl, r3
 800322a:	9b03      	ldr	r3, [sp, #12]
 800322c:	4419      	add	r1, r3
 800322e:	e7c6      	b.n	80031be <_ZN18NetMaxPoolingLayer7forwardEPaS0_+0xe8>
 8003230:	6902      	ldr	r2, [r0, #16]
 8003232:	468a      	mov	sl, r1
 8003234:	6945      	ldr	r5, [r0, #20]
 8003236:	6983      	ldr	r3, [r0, #24]
 8003238:	ea4f 0b82 	mov.w	fp, r2, lsl #2
 800323c:	2000      	movs	r0, #0
 800323e:	9303      	str	r3, [sp, #12]
 8003240:	fb05 f302 	mul.w	r3, r5, r2
 8003244:	9002      	str	r0, [sp, #8]
 8003246:	9306      	str	r3, [sp, #24]
 8003248:	00ab      	lsls	r3, r5, #2
 800324a:	fb0b f303 	mul.w	r3, fp, r3
 800324e:	9307      	str	r3, [sp, #28]
 8003250:	0113      	lsls	r3, r2, #4
 8003252:	9305      	str	r3, [sp, #20]
 8003254:	9b03      	ldr	r3, [sp, #12]
 8003256:	9902      	ldr	r1, [sp, #8]
 8003258:	428b      	cmp	r3, r1
 800325a:	d079      	beq.n	8003350 <_ZN18NetMaxPoolingLayer7forwardEPaS0_+0x27a>
 800325c:	4606      	mov	r6, r0
 800325e:	4657      	mov	r7, sl
 8003260:	f04f 0e00 	mov.w	lr, #0
 8003264:	45ae      	cmp	lr, r5
 8003266:	d023      	beq.n	80032b0 <_ZN18NetMaxPoolingLayer7forwardEPaS0_+0x1da>
 8003268:	2100      	movs	r1, #0
 800326a:	4291      	cmp	r1, r2
 800326c:	d01a      	beq.n	80032a4 <_ZN18NetMaxPoolingLayer7forwardEPaS0_+0x1ce>
 800326e:	eb06 0381 	add.w	r3, r6, r1, lsl #2
 8003272:	9c00      	ldr	r4, [sp, #0]
 8003274:	f8dd 8004 	ldr.w	r8, [sp, #4]
 8003278:	f04f 0c00 	mov.w	ip, #0
 800327c:	4423      	add	r3, r4
 800327e:	1d1c      	adds	r4, r3, #4
 8003280:	4699      	mov	r9, r3
 8003282:	9404      	str	r4, [sp, #16]
 8003284:	f919 4b01 	ldrsb.w	r4, [r9], #1
 8003288:	45a4      	cmp	ip, r4
 800328a:	bfb8      	it	lt
 800328c:	46a4      	movlt	ip, r4
 800328e:	9c04      	ldr	r4, [sp, #16]
 8003290:	45a1      	cmp	r9, r4
 8003292:	d1f7      	bne.n	8003284 <_ZN18NetMaxPoolingLayer7forwardEPaS0_+0x1ae>
 8003294:	f1b8 0801 	subs.w	r8, r8, #1
 8003298:	445b      	add	r3, fp
 800329a:	d1f0      	bne.n	800327e <_ZN18NetMaxPoolingLayer7forwardEPaS0_+0x1a8>
 800329c:	f807 c001 	strb.w	ip, [r7, r1]
 80032a0:	3101      	adds	r1, #1
 80032a2:	e7e2      	b.n	800326a <_ZN18NetMaxPoolingLayer7forwardEPaS0_+0x194>
 80032a4:	9b05      	ldr	r3, [sp, #20]
 80032a6:	f10e 0e01 	add.w	lr, lr, #1
 80032aa:	4417      	add	r7, r2
 80032ac:	441e      	add	r6, r3
 80032ae:	e7d9      	b.n	8003264 <_ZN18NetMaxPoolingLayer7forwardEPaS0_+0x18e>
 80032b0:	9b02      	ldr	r3, [sp, #8]
 80032b2:	3301      	adds	r3, #1
 80032b4:	9302      	str	r3, [sp, #8]
 80032b6:	9b06      	ldr	r3, [sp, #24]
 80032b8:	449a      	add	sl, r3
 80032ba:	9b07      	ldr	r3, [sp, #28]
 80032bc:	4418      	add	r0, r3
 80032be:	e7c9      	b.n	8003254 <_ZN18NetMaxPoolingLayer7forwardEPaS0_+0x17e>
 80032c0:	6945      	ldr	r5, [r0, #20]
 80032c2:	468b      	mov	fp, r1
 80032c4:	6983      	ldr	r3, [r0, #24]
 80032c6:	2100      	movs	r1, #0
 80032c8:	6904      	ldr	r4, [r0, #16]
 80032ca:	9303      	str	r3, [sp, #12]
 80032cc:	460f      	mov	r7, r1
 80032ce:	fb04 f305 	mul.w	r3, r4, r5
 80032d2:	eb04 0084 	add.w	r0, r4, r4, lsl #2
 80032d6:	9305      	str	r3, [sp, #20]
 80032d8:	eb05 0385 	add.w	r3, r5, r5, lsl #2
 80032dc:	4343      	muls	r3, r0
 80032de:	9306      	str	r3, [sp, #24]
 80032e0:	eb00 0380 	add.w	r3, r0, r0, lsl #2
 80032e4:	9304      	str	r3, [sp, #16]
 80032e6:	9b03      	ldr	r3, [sp, #12]
 80032e8:	42bb      	cmp	r3, r7
 80032ea:	d031      	beq.n	8003350 <_ZN18NetMaxPoolingLayer7forwardEPaS0_+0x27a>
 80032ec:	468e      	mov	lr, r1
 80032ee:	46dc      	mov	ip, fp
 80032f0:	f04f 0800 	mov.w	r8, #0
 80032f4:	4545      	cmp	r5, r8
 80032f6:	d025      	beq.n	8003344 <_ZN18NetMaxPoolingLayer7forwardEPaS0_+0x26e>
 80032f8:	2200      	movs	r2, #0
 80032fa:	4294      	cmp	r4, r2
 80032fc:	d01c      	beq.n	8003338 <_ZN18NetMaxPoolingLayer7forwardEPaS0_+0x262>
 80032fe:	eb02 0382 	add.w	r3, r2, r2, lsl #2
 8003302:	9e00      	ldr	r6, [sp, #0]
 8003304:	f8dd a004 	ldr.w	sl, [sp, #4]
 8003308:	f04f 0900 	mov.w	r9, #0
 800330c:	4473      	add	r3, lr
 800330e:	4433      	add	r3, r6
 8003310:	9302      	str	r3, [sp, #8]
 8003312:	2600      	movs	r6, #0
 8003314:	9b02      	ldr	r3, [sp, #8]
 8003316:	579b      	ldrsb	r3, [r3, r6]
 8003318:	3601      	adds	r6, #1
 800331a:	4599      	cmp	r9, r3
 800331c:	bfb8      	it	lt
 800331e:	4699      	movlt	r9, r3
 8003320:	2e05      	cmp	r6, #5
 8003322:	d1f7      	bne.n	8003314 <_ZN18NetMaxPoolingLayer7forwardEPaS0_+0x23e>
 8003324:	9b02      	ldr	r3, [sp, #8]
 8003326:	f1ba 0a01 	subs.w	sl, sl, #1
 800332a:	4403      	add	r3, r0
 800332c:	9302      	str	r3, [sp, #8]
 800332e:	d1f0      	bne.n	8003312 <_ZN18NetMaxPoolingLayer7forwardEPaS0_+0x23c>
 8003330:	f80c 9002 	strb.w	r9, [ip, r2]
 8003334:	3201      	adds	r2, #1
 8003336:	e7e0      	b.n	80032fa <_ZN18NetMaxPoolingLayer7forwardEPaS0_+0x224>
 8003338:	9b04      	ldr	r3, [sp, #16]
 800333a:	f108 0801 	add.w	r8, r8, #1
 800333e:	44a4      	add	ip, r4
 8003340:	449e      	add	lr, r3
 8003342:	e7d7      	b.n	80032f4 <_ZN18NetMaxPoolingLayer7forwardEPaS0_+0x21e>
 8003344:	9b05      	ldr	r3, [sp, #20]
 8003346:	3701      	adds	r7, #1
 8003348:	449b      	add	fp, r3
 800334a:	9b06      	ldr	r3, [sp, #24]
 800334c:	4419      	add	r1, r3
 800334e:	e7ca      	b.n	80032e6 <_ZN18NetMaxPoolingLayer7forwardEPaS0_+0x210>
 8003350:	b009      	add	sp, #36	; 0x24
 8003352:	e8bd 8ff0 	ldmia.w	sp!, {r4, r5, r6, r7, r8, r9, sl, fp, pc}
 8003356:	0000      	movs	r0, r0

08003358 <_ZN18NetMaxPoolingLayerC1E14sLayerGeometryS0_S0_>:
 8003358:	b530      	push	{r4, r5, lr}
 800335a:	b085      	sub	sp, #20
 800335c:	4605      	mov	r5, r0
 800335e:	ac01      	add	r4, sp, #4
 8003360:	e884 000e 	stmia.w	r4, {r1, r2, r3}
 8003364:	f000 fc22 	bl	8003bac <_ZN12NetworkLayerC1Ev>
 8003368:	462b      	mov	r3, r5
 800336a:	4a0a      	ldr	r2, [pc, #40]	; (8003394 <_ZN18NetMaxPoolingLayerC1E14sLayerGeometryS0_S0_+0x3c>)
 800336c:	f843 2b1c 	str.w	r2, [r3], #28
 8003370:	e894 0007 	ldmia.w	r4, {r0, r1, r2}
 8003374:	e883 0007 	stmia.w	r3, {r0, r1, r2}
 8003378:	aa08      	add	r2, sp, #32
 800337a:	1d2b      	adds	r3, r5, #4
 800337c:	ca07      	ldmia	r2, {r0, r1, r2}
 800337e:	e883 0007 	stmia.w	r3, {r0, r1, r2}
 8003382:	aa0b      	add	r2, sp, #44	; 0x2c
 8003384:	f105 0310 	add.w	r3, r5, #16
 8003388:	ca07      	ldmia	r2, {r0, r1, r2}
 800338a:	e883 0007 	stmia.w	r3, {r0, r1, r2}
 800338e:	4628      	mov	r0, r5
 8003390:	b005      	add	sp, #20
 8003392:	bd30      	pop	{r4, r5, pc}
 8003394:	08004f3c 	stmdaeq	r0, {r2, r3, r4, r5, r8, r9, sl, fp, lr}

08003398 <_ZN19NetConvolutionLayerD1Ev>:
 8003398:	4b03      	ldr	r3, [pc, #12]	; (80033a8 <_ZN19NetConvolutionLayerD1Ev+0x10>)
 800339a:	b510      	push	{r4, lr}
 800339c:	4604      	mov	r4, r0
 800339e:	6003      	str	r3, [r0, #0]
 80033a0:	f000 fbfb 	bl	8003b9a <_ZN12NetworkLayerD1Ev>
 80033a4:	4620      	mov	r0, r4
 80033a6:	bd10      	pop	{r4, pc}
 80033a8:	08004f50 	stmdaeq	r0, {r4, r6, r8, r9, sl, fp, lr}

080033ac <_ZN19NetConvolutionLayerD0Ev>:
 80033ac:	b510      	push	{r4, lr}
 80033ae:	4604      	mov	r4, r0
 80033b0:	f7ff fff2 	bl	8003398 <_ZN19NetConvolutionLayerD1Ev>
 80033b4:	4620      	mov	r0, r4
 80033b6:	f7fe ff6b 	bl	8002290 <_ZdlPv>
 80033ba:	4620      	mov	r0, r4
 80033bc:	bd10      	pop	{r4, pc}

080033be <_ZN19NetConvolutionLayer7forwardEPaS0_>:
 80033be:	b570      	push	{r4, r5, r6, lr}
 80033c0:	4616      	mov	r6, r2
 80033c2:	b088      	sub	sp, #32
 80033c4:	f100 021c 	add.w	r2, r0, #28
 80033c8:	4604      	mov	r4, r0
 80033ca:	460d      	mov	r5, r1
 80033cc:	ab05      	add	r3, sp, #20
 80033ce:	ca07      	ldmia	r2, {r0, r1, r2}
 80033d0:	e883 0007 	stmia.w	r3, {r0, r1, r2}
 80033d4:	1d22      	adds	r2, r4, #4
 80033d6:	ab02      	add	r3, sp, #8
 80033d8:	ca07      	ldmia	r2, {r0, r1, r2}
 80033da:	e883 0007 	stmia.w	r3, {r0, r1, r2}
 80033de:	6b63      	ldr	r3, [r4, #52]	; 0x34
 80033e0:	4631      	mov	r1, r6
 80033e2:	6aa2      	ldr	r2, [r4, #40]	; 0x28
 80033e4:	4628      	mov	r0, r5
 80033e6:	9301      	str	r3, [sp, #4]
 80033e8:	6b23      	ldr	r3, [r4, #48]	; 0x30
 80033ea:	9300      	str	r3, [sp, #0]
 80033ec:	6ae3      	ldr	r3, [r4, #44]	; 0x2c
 80033ee:	f000 fb53 	bl	8003a98 <_Z26network_convolution_kernelPaS_S_S_ii14sLayerGeometryS0_>
 80033f2:	b008      	add	sp, #32
 80033f4:	bd70      	pop	{r4, r5, r6, pc}
 80033f6:	0000      	movs	r0, r0

080033f8 <_ZN19NetConvolutionLayerC1E14sLayerGeometryS0_S0_PKaS2_ii>:
 80033f8:	b530      	push	{r4, r5, lr}
 80033fa:	b085      	sub	sp, #20
 80033fc:	4604      	mov	r4, r0
 80033fe:	ad01      	add	r5, sp, #4
 8003400:	e885 000e 	stmia.w	r5, {r1, r2, r3}
 8003404:	f000 fbd2 	bl	8003bac <_ZN12NetworkLayerC1Ev>
 8003408:	4623      	mov	r3, r4
 800340a:	4a0e      	ldr	r2, [pc, #56]	; (8003444 <_ZN19NetConvolutionLayerC1E14sLayerGeometryS0_S0_PKaS2_ii+0x4c>)
 800340c:	f843 2b1c 	str.w	r2, [r3], #28
 8003410:	e895 0007 	ldmia.w	r5, {r0, r1, r2}
 8003414:	e883 0007 	stmia.w	r3, {r0, r1, r2}
 8003418:	aa08      	add	r2, sp, #32
 800341a:	1d23      	adds	r3, r4, #4
 800341c:	ca07      	ldmia	r2, {r0, r1, r2}
 800341e:	e883 0007 	stmia.w	r3, {r0, r1, r2}
 8003422:	aa0b      	add	r2, sp, #44	; 0x2c
 8003424:	f104 0310 	add.w	r3, r4, #16
 8003428:	ca07      	ldmia	r2, {r0, r1, r2}
 800342a:	e883 0007 	stmia.w	r3, {r0, r1, r2}
 800342e:	9b0e      	ldr	r3, [sp, #56]	; 0x38
 8003430:	4620      	mov	r0, r4
 8003432:	62a3      	str	r3, [r4, #40]	; 0x28
 8003434:	9b0f      	ldr	r3, [sp, #60]	; 0x3c
 8003436:	62e3      	str	r3, [r4, #44]	; 0x2c
 8003438:	9b10      	ldr	r3, [sp, #64]	; 0x40
 800343a:	6323      	str	r3, [r4, #48]	; 0x30
 800343c:	9b11      	ldr	r3, [sp, #68]	; 0x44
 800343e:	6363      	str	r3, [r4, #52]	; 0x34
 8003440:	b005      	add	sp, #20
 8003442:	bd30      	pop	{r4, r5, pc}
 8003444:	08004f50 	stmdaeq	r0, {r4, r6, r8, r9, sl, fp, lr}

08003448 <_ZN10NetFcLayerD1Ev>:
 8003448:	4b03      	ldr	r3, [pc, #12]	; (8003458 <_ZN10NetFcLayerD1Ev+0x10>)
 800344a:	b510      	push	{r4, lr}
 800344c:	4604      	mov	r4, r0
 800344e:	6003      	str	r3, [r0, #0]
 8003450:	f000 fba3 	bl	8003b9a <_ZN12NetworkLayerD1Ev>
 8003454:	4620      	mov	r0, r4
 8003456:	bd10      	pop	{r4, pc}
 8003458:	08004f64 	stmdaeq	r0, {r2, r5, r6, r8, r9, sl, fp, lr}

0800345c <_ZN10NetFcLayerD0Ev>:
 800345c:	b510      	push	{r4, lr}
 800345e:	4604      	mov	r4, r0
 8003460:	f7ff fff2 	bl	8003448 <_ZN10NetFcLayerD1Ev>
 8003464:	4620      	mov	r0, r4
 8003466:	f7fe ff13 	bl	8002290 <_ZdlPv>
 800346a:	4620      	mov	r0, r4
 800346c:	bd10      	pop	{r4, pc}

0800346e <_ZN10NetFcLayer7forwardEPaS0_>:
 800346e:	e92d 4ff8 	stmdb	sp!, {r3, r4, r5, r6, r7, r8, r9, sl, fp, lr}
 8003472:	4604      	mov	r4, r0
 8003474:	460e      	mov	r6, r1
 8003476:	4692      	mov	sl, r2
 8003478:	460d      	mov	r5, r1
 800347a:	f04f 0980 	mov.w	r9, #128	; 0x80
 800347e:	f44f 6880 	mov.w	r8, #1024	; 0x400
 8003482:	f06f 077e 	mvn.w	r7, #126	; 0x7e
 8003486:	eba5 0b06 	sub.w	fp, r5, r6
 800348a:	6ba3      	ldr	r3, [r4, #56]	; 0x38
 800348c:	455b      	cmp	r3, fp
 800348e:	d91b      	bls.n	80034c8 <_ZN10NetFcLayer7forwardEPaS0_+0x5a>
 8003490:	6be2      	ldr	r2, [r4, #60]	; 0x3c
 8003492:	4651      	mov	r1, sl
 8003494:	6aa0      	ldr	r0, [r4, #40]	; 0x28
 8003496:	fb0b 0002 	mla	r0, fp, r2, r0
 800349a:	f000 f84b 	bl	8003534 <_Z18network_dot_kernelPaS_j>
 800349e:	6b23      	ldr	r3, [r4, #48]	; 0x30
 80034a0:	6b62      	ldr	r2, [r4, #52]	; 0x34
 80034a2:	4358      	muls	r0, r3
 80034a4:	6ae3      	ldr	r3, [r4, #44]	; 0x2c
 80034a6:	fb90 f0f9 	sdiv	r0, r0, r9
 80034aa:	f913 300b 	ldrsb.w	r3, [r3, fp]
 80034ae:	fb02 0003 	mla	r0, r2, r3, r0
 80034b2:	fb90 f0f8 	sdiv	r0, r0, r8
 80034b6:	42b8      	cmp	r0, r7
 80034b8:	bfb8      	it	lt
 80034ba:	4638      	movlt	r0, r7
 80034bc:	287f      	cmp	r0, #127	; 0x7f
 80034be:	bfa8      	it	ge
 80034c0:	207f      	movge	r0, #127	; 0x7f
 80034c2:	f805 0b01 	strb.w	r0, [r5], #1
 80034c6:	e7de      	b.n	8003486 <_ZN10NetFcLayer7forwardEPaS0_+0x18>
 80034c8:	e8bd 8ff8 	ldmia.w	sp!, {r3, r4, r5, r6, r7, r8, r9, sl, fp, pc}

080034cc <_ZN10NetFcLayerC1E14sLayerGeometryS0_S0_PKaS2_ii>:
 80034cc:	b530      	push	{r4, r5, lr}
 80034ce:	b085      	sub	sp, #20
 80034d0:	4604      	mov	r4, r0
 80034d2:	ad01      	add	r5, sp, #4
 80034d4:	e885 000e 	stmia.w	r5, {r1, r2, r3}
 80034d8:	f000 fb68 	bl	8003bac <_ZN12NetworkLayerC1Ev>
 80034dc:	4623      	mov	r3, r4
 80034de:	4a14      	ldr	r2, [pc, #80]	; (8003530 <_ZN10NetFcLayerC1E14sLayerGeometryS0_S0_PKaS2_ii+0x64>)
 80034e0:	f843 2b1c 	str.w	r2, [r3], #28
 80034e4:	e895 0007 	ldmia.w	r5, {r0, r1, r2}
 80034e8:	e883 0007 	stmia.w	r3, {r0, r1, r2}
 80034ec:	aa08      	add	r2, sp, #32
 80034ee:	1d23      	adds	r3, r4, #4
 80034f0:	ca07      	ldmia	r2, {r0, r1, r2}
 80034f2:	e883 0007 	stmia.w	r3, {r0, r1, r2}
 80034f6:	aa0b      	add	r2, sp, #44	; 0x2c
 80034f8:	f104 0310 	add.w	r3, r4, #16
 80034fc:	ca07      	ldmia	r2, {r0, r1, r2}
 80034fe:	e883 0007 	stmia.w	r3, {r0, r1, r2}
 8003502:	9b0e      	ldr	r3, [sp, #56]	; 0x38
 8003504:	6862      	ldr	r2, [r4, #4]
 8003506:	62a3      	str	r3, [r4, #40]	; 0x28
 8003508:	9b0f      	ldr	r3, [sp, #60]	; 0x3c
 800350a:	62e3      	str	r3, [r4, #44]	; 0x2c
 800350c:	9b10      	ldr	r3, [sp, #64]	; 0x40
 800350e:	6323      	str	r3, [r4, #48]	; 0x30
 8003510:	9b11      	ldr	r3, [sp, #68]	; 0x44
 8003512:	6363      	str	r3, [r4, #52]	; 0x34
 8003514:	68a3      	ldr	r3, [r4, #8]
 8003516:	435a      	muls	r2, r3
 8003518:	68e3      	ldr	r3, [r4, #12]
 800351a:	4353      	muls	r3, r2
 800351c:	4602      	mov	r2, r0
 800351e:	4620      	mov	r0, r4
 8003520:	63e3      	str	r3, [r4, #60]	; 0x3c
 8003522:	6963      	ldr	r3, [r4, #20]
 8003524:	435a      	muls	r2, r3
 8003526:	69a3      	ldr	r3, [r4, #24]
 8003528:	4353      	muls	r3, r2
 800352a:	63a3      	str	r3, [r4, #56]	; 0x38
 800352c:	b005      	add	sp, #20
 800352e:	bd30      	pop	{r4, r5, pc}
 8003530:	08004f64 	stmdaeq	r0, {r2, r5, r6, r8, r9, sl, fp, lr}

08003534 <_Z18network_dot_kernelPaS_j>:
 8003534:	2300      	movs	r3, #0
 8003536:	b570      	push	{r4, r5, r6, lr}
 8003538:	4606      	mov	r6, r0
 800353a:	4618      	mov	r0, r3
 800353c:	4293      	cmp	r3, r2
 800353e:	d005      	beq.n	800354c <_Z18network_dot_kernelPaS_j+0x18>
 8003540:	56f5      	ldrsb	r5, [r6, r3]
 8003542:	56cc      	ldrsb	r4, [r1, r3]
 8003544:	3301      	adds	r3, #1
 8003546:	fb15 0004 	smlabb	r0, r5, r4, r0
 800354a:	e7f7      	b.n	800353c <_Z18network_dot_kernelPaS_j+0x8>
 800354c:	bd70      	pop	{r4, r5, r6, pc}

0800354e <_ZN13NeuralNetwork9set_inputEPa>:
 800354e:	f8d0 308c 	ldr.w	r3, [r0, #140]	; 0x8c
 8003552:	f8d0 2088 	ldr.w	r2, [r0, #136]	; 0x88
 8003556:	435a      	muls	r2, r3
 8003558:	f8d0 3090 	ldr.w	r3, [r0, #144]	; 0x90
 800355c:	435a      	muls	r2, r3
 800355e:	2300      	movs	r3, #0
 8003560:	b530      	push	{r4, r5, lr}
 8003562:	4293      	cmp	r3, r2
 8003564:	d005      	beq.n	8003572 <_ZN13NeuralNetwork9set_inputEPa+0x24>
 8003566:	56cd      	ldrsb	r5, [r1, r3]
 8003568:	f8d0 40a8 	ldr.w	r4, [r0, #168]	; 0xa8
 800356c:	54e5      	strb	r5, [r4, r3]
 800356e:	3301      	adds	r3, #1
 8003570:	e7f7      	b.n	8003562 <_ZN13NeuralNetwork9set_inputEPa+0x14>
 8003572:	bd30      	pop	{r4, r5, pc}

08003574 <_ZN13NeuralNetworkD1Ev>:
 8003574:	4b07      	ldr	r3, [pc, #28]	; (8003594 <_ZN13NeuralNetworkD1Ev+0x20>)
 8003576:	b510      	push	{r4, lr}
 8003578:	4604      	mov	r4, r0
 800357a:	6003      	str	r3, [r0, #0]
 800357c:	f8d0 00a0 	ldr.w	r0, [r0, #160]	; 0xa0
 8003580:	b108      	cbz	r0, 8003586 <_ZN13NeuralNetworkD1Ev+0x12>
 8003582:	f7fe fe8f 	bl	80022a4 <_ZdaPv>
 8003586:	f8d4 00a4 	ldr.w	r0, [r4, #164]	; 0xa4
 800358a:	b108      	cbz	r0, 8003590 <_ZN13NeuralNetworkD1Ev+0x1c>
 800358c:	f7fe fe8a 	bl	80022a4 <_ZdaPv>
 8003590:	4620      	mov	r0, r4
 8003592:	bd10      	pop	{r4, pc}
 8003594:	08004f78 	stmdaeq	r0, {r3, r4, r5, r6, r8, r9, sl, fp, lr}

08003598 <_ZN13NeuralNetworkD0Ev>:
 8003598:	b510      	push	{r4, lr}
 800359a:	4604      	mov	r4, r0
 800359c:	f7ff ffea 	bl	8003574 <_ZN13NeuralNetworkD1Ev>
 80035a0:	4620      	mov	r0, r4
 80035a2:	f7fe fe75 	bl	8002290 <_ZdlPv>
 80035a6:	4620      	mov	r0, r4
 80035a8:	bd10      	pop	{r4, pc}
 80035aa:	0000      	movs	r0, r0

080035ac <_ZN13NeuralNetworkC1Ev>:
 80035ac:	4b0e      	ldr	r3, [pc, #56]	; (80035e8 <_ZN13NeuralNetworkC1Ev+0x3c>)
 80035ae:	f100 0208 	add.w	r2, r0, #8
 80035b2:	f100 0188 	add.w	r1, r0, #136	; 0x88
 80035b6:	6003      	str	r3, [r0, #0]
 80035b8:	2300      	movs	r3, #0
 80035ba:	f8c0 3088 	str.w	r3, [r0, #136]	; 0x88
 80035be:	f8c0 308c 	str.w	r3, [r0, #140]	; 0x8c
 80035c2:	f8c0 3090 	str.w	r3, [r0, #144]	; 0x90
 80035c6:	f8c0 3094 	str.w	r3, [r0, #148]	; 0x94
 80035ca:	f8c0 3098 	str.w	r3, [r0, #152]	; 0x98
 80035ce:	f8c0 309c 	str.w	r3, [r0, #156]	; 0x9c
 80035d2:	f842 3b04 	str.w	r3, [r2], #4
 80035d6:	428a      	cmp	r2, r1
 80035d8:	d1fb      	bne.n	80035d2 <_ZN13NeuralNetworkC1Ev+0x26>
 80035da:	6043      	str	r3, [r0, #4]
 80035dc:	f8c0 30a0 	str.w	r3, [r0, #160]	; 0xa0
 80035e0:	f8c0 30a4 	str.w	r3, [r0, #164]	; 0xa4
 80035e4:	4770      	bx	lr
 80035e6:	bf00      	nop
 80035e8:	08004f78 	stmdaeq	r0, {r3, r4, r5, r6, r8, r9, sl, fp, lr}

080035ec <_ZN13NeuralNetwork7forwardEv>:
 80035ec:	b5f8      	push	{r3, r4, r5, r6, r7, lr}
 80035ee:	2500      	movs	r5, #0
 80035f0:	4604      	mov	r4, r0
 80035f2:	f100 0608 	add.w	r6, r0, #8
 80035f6:	462f      	mov	r7, r5
 80035f8:	6863      	ldr	r3, [r4, #4]
 80035fa:	429d      	cmp	r5, r3
 80035fc:	d21f      	bcs.n	800363e <_ZN13NeuralNetwork7forwardEv+0x52>
 80035fe:	2300      	movs	r3, #0
 8003600:	6830      	ldr	r0, [r6, #0]
 8003602:	6942      	ldr	r2, [r0, #20]
 8003604:	6901      	ldr	r1, [r0, #16]
 8003606:	4351      	muls	r1, r2
 8003608:	6982      	ldr	r2, [r0, #24]
 800360a:	434a      	muls	r2, r1
 800360c:	4293      	cmp	r3, r2
 800360e:	d204      	bcs.n	800361a <_ZN13NeuralNetwork7forwardEv+0x2e>
 8003610:	f8d4 20ac 	ldr.w	r2, [r4, #172]	; 0xac
 8003614:	54d7      	strb	r7, [r2, r3]
 8003616:	3301      	adds	r3, #1
 8003618:	e7f2      	b.n	8003600 <_ZN13NeuralNetwork7forwardEv+0x14>
 800361a:	6803      	ldr	r3, [r0, #0]
 800361c:	3501      	adds	r5, #1
 800361e:	f8d4 20a8 	ldr.w	r2, [r4, #168]	; 0xa8
 8003622:	3604      	adds	r6, #4
 8003624:	689b      	ldr	r3, [r3, #8]
 8003626:	f8d4 10ac 	ldr.w	r1, [r4, #172]	; 0xac
 800362a:	4798      	blx	r3
 800362c:	f8d4 30a8 	ldr.w	r3, [r4, #168]	; 0xa8
 8003630:	f8d4 20ac 	ldr.w	r2, [r4, #172]	; 0xac
 8003634:	f8c4 30ac 	str.w	r3, [r4, #172]	; 0xac
 8003638:	f8c4 20a8 	str.w	r2, [r4, #168]	; 0xa8
 800363c:	e7dc      	b.n	80035f8 <_ZN13NeuralNetwork7forwardEv+0xc>
 800363e:	f8d4 30a8 	ldr.w	r3, [r4, #168]	; 0xa8
 8003642:	f8d4 20ac 	ldr.w	r2, [r4, #172]	; 0xac
 8003646:	f8c4 30ac 	str.w	r3, [r4, #172]	; 0xac
 800364a:	f8c4 20a8 	str.w	r2, [r4, #168]	; 0xa8
 800364e:	bdf8      	pop	{r3, r4, r5, r6, r7, pc}

08003650 <_ZN13NeuralNetwork12class_resultEv>:
 8003650:	f8d0 2098 	ldr.w	r2, [r0, #152]	; 0x98
 8003654:	f8d0 3094 	ldr.w	r3, [r0, #148]	; 0x94
 8003658:	4353      	muls	r3, r2
 800365a:	f8d0 209c 	ldr.w	r2, [r0, #156]	; 0x9c
 800365e:	b530      	push	{r4, r5, lr}
 8003660:	435a      	muls	r2, r3
 8003662:	f8d0 40ac 	ldr.w	r4, [r0, #172]	; 0xac
 8003666:	2300      	movs	r3, #0
 8003668:	f994 1000 	ldrsb.w	r1, [r4]
 800366c:	4618      	mov	r0, r3
 800366e:	4293      	cmp	r3, r2
 8003670:	d006      	beq.n	8003680 <_ZN13NeuralNetwork12class_resultEv+0x30>
 8003672:	56e5      	ldrsb	r5, [r4, r3]
 8003674:	42a9      	cmp	r1, r5
 8003676:	bfbc      	itt	lt
 8003678:	4618      	movlt	r0, r3
 800367a:	4629      	movlt	r1, r5
 800367c:	3301      	adds	r3, #1
 800367e:	e7f6      	b.n	800366e <_ZN13NeuralNetwork12class_resultEv+0x1e>
 8003680:	bd30      	pop	{r4, r5, pc}

08003682 <_ZN13NeuralNetwork24get_required_buffer_sizeEv>:
 8003682:	b570      	push	{r4, r5, r6, lr}
 8003684:	6844      	ldr	r4, [r0, #4]
 8003686:	f100 0508 	add.w	r5, r0, #8
 800368a:	3402      	adds	r4, #2
 800368c:	eb00 0484 	add.w	r4, r0, r4, lsl #2
 8003690:	2000      	movs	r0, #0
 8003692:	42a5      	cmp	r5, r4
 8003694:	d012      	beq.n	80036bc <_ZN13NeuralNetwork24get_required_buffer_sizeEv+0x3a>
 8003696:	f855 3b04 	ldr.w	r3, [r5], #4
 800369a:	689a      	ldr	r2, [r3, #8]
 800369c:	6859      	ldr	r1, [r3, #4]
 800369e:	691e      	ldr	r6, [r3, #16]
 80036a0:	4351      	muls	r1, r2
 80036a2:	68da      	ldr	r2, [r3, #12]
 80036a4:	434a      	muls	r2, r1
 80036a6:	6959      	ldr	r1, [r3, #20]
 80036a8:	699b      	ldr	r3, [r3, #24]
 80036aa:	4371      	muls	r1, r6
 80036ac:	434b      	muls	r3, r1
 80036ae:	429a      	cmp	r2, r3
 80036b0:	bf38      	it	cc
 80036b2:	461a      	movcc	r2, r3
 80036b4:	4290      	cmp	r0, r2
 80036b6:	bf38      	it	cc
 80036b8:	4610      	movcc	r0, r2
 80036ba:	e7ea      	b.n	8003692 <_ZN13NeuralNetwork24get_required_buffer_sizeEv+0x10>
 80036bc:	bd70      	pop	{r4, r5, r6, pc}

080036be <_ZN13NeuralNetwork15allocate_bufferEv>:
 80036be:	f8d0 30a0 	ldr.w	r3, [r0, #160]	; 0xa0
 80036c2:	b570      	push	{r4, r5, r6, lr}
 80036c4:	4605      	mov	r5, r0
 80036c6:	bb03      	cbnz	r3, 800370a <_ZN13NeuralNetwork15allocate_bufferEv+0x4c>
 80036c8:	f8d0 40a4 	ldr.w	r4, [r0, #164]	; 0xa4
 80036cc:	b9ec      	cbnz	r4, 800370a <_ZN13NeuralNetwork15allocate_bufferEv+0x4c>
 80036ce:	f7ff ffd8 	bl	8003682 <_ZN13NeuralNetwork24get_required_buffer_sizeEv>
 80036d2:	4606      	mov	r6, r0
 80036d4:	f7fe fdde 	bl	8002294 <_Znaj>
 80036d8:	f8c5 00a0 	str.w	r0, [r5, #160]	; 0xa0
 80036dc:	4630      	mov	r0, r6
 80036de:	f7fe fdd9 	bl	8002294 <_Znaj>
 80036e2:	f8d5 30a0 	ldr.w	r3, [r5, #160]	; 0xa0
 80036e6:	4622      	mov	r2, r4
 80036e8:	f8c5 00a4 	str.w	r0, [r5, #164]	; 0xa4
 80036ec:	f8c5 30a8 	str.w	r3, [r5, #168]	; 0xa8
 80036f0:	4623      	mov	r3, r4
 80036f2:	f8c5 00ac 	str.w	r0, [r5, #172]	; 0xac
 80036f6:	429e      	cmp	r6, r3
 80036f8:	d007      	beq.n	800370a <_ZN13NeuralNetwork15allocate_bufferEv+0x4c>
 80036fa:	f8d5 10a0 	ldr.w	r1, [r5, #160]	; 0xa0
 80036fe:	54ca      	strb	r2, [r1, r3]
 8003700:	f8d5 10a4 	ldr.w	r1, [r5, #164]	; 0xa4
 8003704:	54ca      	strb	r2, [r1, r3]
 8003706:	3301      	adds	r3, #1
 8003708:	e7f5      	b.n	80036f6 <_ZN13NeuralNetwork15allocate_bufferEv+0x38>
 800370a:	bd70      	pop	{r4, r5, r6, pc}

0800370c <_Z28t_network_convolution_kernelILj3EEvPaS0_S0_S0_iijjjj>:
 800370c:	e92d 4ff0 	stmdb	sp!, {r4, r5, r6, r7, r8, r9, sl, fp, lr}
 8003710:	b08d      	sub	sp, #52	; 0x34
 8003712:	9c18      	ldr	r4, [sp, #96]	; 0x60
 8003714:	910a      	str	r1, [sp, #40]	; 0x28
 8003716:	9919      	ldr	r1, [sp, #100]	; 0x64
 8003718:	46a4      	mov	ip, r4
 800371a:	9009      	str	r0, [sp, #36]	; 0x24
 800371c:	1e8d      	subs	r5, r1, #2
 800371e:	4361      	muls	r1, r4
 8003720:	981a      	ldr	r0, [sp, #104]	; 0x68
 8003722:	9103      	str	r1, [sp, #12]
 8003724:	991b      	ldr	r1, [sp, #108]	; 0x6c
 8003726:	eb00 00c0 	add.w	r0, r0, r0, lsl #3
 800372a:	9505      	str	r5, [sp, #20]
 800372c:	1ea5      	subs	r5, r4, #2
 800372e:	1859      	adds	r1, r3, r1
 8003730:	9002      	str	r0, [sp, #8]
 8003732:	9506      	str	r5, [sp, #24]
 8003734:	9107      	str	r1, [sp, #28]
 8003736:	0061      	lsls	r1, r4, #1
 8003738:	9201      	str	r2, [sp, #4]
 800373a:	9104      	str	r1, [sp, #16]
 800373c:	4601      	mov	r1, r0
 800373e:	3109      	adds	r1, #9
 8003740:	910b      	str	r1, [sp, #44]	; 0x2c
 8003742:	9907      	ldr	r1, [sp, #28]
 8003744:	428b      	cmp	r3, r1
 8003746:	d07a      	beq.n	800383e <_Z28t_network_convolution_kernelILj3EEvPaS0_S0_S0_iijjjj+0x132>
 8003748:	990b      	ldr	r1, [sp, #44]	; 0x2c
 800374a:	2500      	movs	r5, #0
 800374c:	9a01      	ldr	r2, [sp, #4]
 800374e:	46a8      	mov	r8, r5
 8003750:	4411      	add	r1, r2
 8003752:	9108      	str	r1, [sp, #32]
 8003754:	eb05 0e0c 	add.w	lr, r5, ip
 8003758:	9909      	ldr	r1, [sp, #36]	; 0x24
 800375a:	2700      	movs	r7, #0
 800375c:	448e      	add	lr, r1
 800375e:	990a      	ldr	r1, [sp, #40]	; 0x28
 8003760:	1978      	adds	r0, r7, r5
 8003762:	2600      	movs	r6, #0
 8003764:	4408      	add	r0, r1
 8003766:	9901      	ldr	r1, [sp, #4]
 8003768:	3109      	adds	r1, #9
 800376a:	9a08      	ldr	r2, [sp, #32]
 800376c:	4291      	cmp	r1, r2
 800376e:	d03c      	beq.n	80037ea <_Z28t_network_convolution_kernelILj3EEvPaS0_S0_S0_iijjjj+0xde>
 8003770:	f990 b000 	ldrsb.w	fp, [r0]
 8003774:	f911 ac09 	ldrsb.w	sl, [r1, #-9]
 8003778:	f911 9c07 	ldrsb.w	r9, [r1, #-7]
 800377c:	fb1a 660b 	smlabb	r6, sl, fp, r6
 8003780:	f990 b001 	ldrsb.w	fp, [r0, #1]
 8003784:	f911 ac08 	ldrsb.w	sl, [r1, #-8]
 8003788:	9a04      	ldr	r2, [sp, #16]
 800378a:	fb1a 660b 	smlabb	r6, sl, fp, r6
 800378e:	f990 b002 	ldrsb.w	fp, [r0, #2]
 8003792:	fb19 6b0b 	smlabb	fp, r9, fp, r6
 8003796:	f911 9c06 	ldrsb.w	r9, [r1, #-6]
 800379a:	5706      	ldrsb	r6, [r0, r4]
 800379c:	fb19 b606 	smlabb	r6, r9, r6, fp
 80037a0:	eb00 0904 	add.w	r9, r0, r4
 80037a4:	f911 bc05 	ldrsb.w	fp, [r1, #-5]
 80037a8:	f999 a001 	ldrsb.w	sl, [r9, #1]
 80037ac:	fb1b 660a 	smlabb	r6, fp, sl, r6
 80037b0:	f999 b002 	ldrsb.w	fp, [r9, #2]
 80037b4:	f911 ac04 	ldrsb.w	sl, [r1, #-4]
 80037b8:	f911 9c03 	ldrsb.w	r9, [r1, #-3]
 80037bc:	fb1a 6a0b 	smlabb	sl, sl, fp, r6
 80037c0:	f910 6014 	ldrsb.w	r6, [r0, r4, lsl #1]
 80037c4:	f911 bc02 	ldrsb.w	fp, [r1, #-2]
 80037c8:	fb19 a606 	smlabb	r6, r9, r6, sl
 80037cc:	eb00 0902 	add.w	r9, r0, r2
 80037d0:	9a03      	ldr	r2, [sp, #12]
 80037d2:	f999 a001 	ldrsb.w	sl, [r9, #1]
 80037d6:	4410      	add	r0, r2
 80037d8:	fb1b 660a 	smlabb	r6, fp, sl, r6
 80037dc:	f911 ac01 	ldrsb.w	sl, [r1, #-1]
 80037e0:	f999 b002 	ldrsb.w	fp, [r9, #2]
 80037e4:	fb1a 660b 	smlabb	r6, sl, fp, r6
 80037e8:	e7be      	b.n	8003768 <_Z28t_network_convolution_kernelILj3EEvPaS0_S0_S0_iijjjj+0x5c>
 80037ea:	9a16      	ldr	r2, [sp, #88]	; 0x58
 80037ec:	3701      	adds	r7, #1
 80037ee:	f993 1000 	ldrsb.w	r1, [r3]
 80037f2:	4356      	muls	r6, r2
 80037f4:	2280      	movs	r2, #128	; 0x80
 80037f6:	fb96 f6f2 	sdiv	r6, r6, r2
 80037fa:	9a17      	ldr	r2, [sp, #92]	; 0x5c
 80037fc:	fb02 6101 	mla	r1, r2, r1, r6
 8003800:	f44f 6280 	mov.w	r2, #1024	; 0x400
 8003804:	fb91 f1f2 	sdiv	r1, r1, r2
 8003808:	f06f 027e 	mvn.w	r2, #126	; 0x7e
 800380c:	4291      	cmp	r1, r2
 800380e:	bfb8      	it	lt
 8003810:	4611      	movlt	r1, r2
 8003812:	9a06      	ldr	r2, [sp, #24]
 8003814:	297f      	cmp	r1, #127	; 0x7f
 8003816:	bfa8      	it	ge
 8003818:	217f      	movge	r1, #127	; 0x7f
 800381a:	42ba      	cmp	r2, r7
 800381c:	f80e 1f01 	strb.w	r1, [lr, #1]!
 8003820:	d29d      	bcs.n	800375e <_Z28t_network_convolution_kernelILj3EEvPaS0_S0_S0_iijjjj+0x52>
 8003822:	f108 0801 	add.w	r8, r8, #1
 8003826:	9a05      	ldr	r2, [sp, #20]
 8003828:	4425      	add	r5, r4
 800382a:	4542      	cmp	r2, r8
 800382c:	d292      	bcs.n	8003754 <_Z28t_network_convolution_kernelILj3EEvPaS0_S0_S0_iijjjj+0x48>
 800382e:	9a02      	ldr	r2, [sp, #8]
 8003830:	3301      	adds	r3, #1
 8003832:	9901      	ldr	r1, [sp, #4]
 8003834:	4411      	add	r1, r2
 8003836:	9a03      	ldr	r2, [sp, #12]
 8003838:	9101      	str	r1, [sp, #4]
 800383a:	4494      	add	ip, r2
 800383c:	e781      	b.n	8003742 <_Z28t_network_convolution_kernelILj3EEvPaS0_S0_S0_iijjjj+0x36>
 800383e:	b00d      	add	sp, #52	; 0x34
 8003840:	e8bd 8ff0 	ldmia.w	sp!, {r4, r5, r6, r7, r8, r9, sl, fp, pc}

08003844 <_Z28t_network_convolution_kernelILj5EEvPaS0_S0_S0_iijjjj>:
 8003844:	e92d 4ff0 	stmdb	sp!, {r4, r5, r6, r7, r8, r9, sl, fp, lr}
 8003848:	b093      	sub	sp, #76	; 0x4c
 800384a:	2519      	movs	r5, #25
 800384c:	9c1f      	ldr	r4, [sp, #124]	; 0x7c
 800384e:	900f      	str	r0, [sp, #60]	; 0x3c
 8003850:	1f20      	subs	r0, r4, #4
 8003852:	9200      	str	r2, [sp, #0]
 8003854:	9a21      	ldr	r2, [sp, #132]	; 0x84
 8003856:	9009      	str	r0, [sp, #36]	; 0x24
 8003858:	981e      	ldr	r0, [sp, #120]	; 0x78
 800385a:	189a      	adds	r2, r3, r2
 800385c:	3804      	subs	r0, #4
 800385e:	920d      	str	r2, [sp, #52]	; 0x34
 8003860:	9a1e      	ldr	r2, [sp, #120]	; 0x78
 8003862:	900a      	str	r0, [sp, #40]	; 0x28
 8003864:	9820      	ldr	r0, [sp, #128]	; 0x80
 8003866:	0092      	lsls	r2, r2, #2
 8003868:	4368      	muls	r0, r5
 800386a:	920b      	str	r2, [sp, #44]	; 0x2c
 800386c:	9005      	str	r0, [sp, #20]
 800386e:	9a05      	ldr	r2, [sp, #20]
 8003870:	981e      	ldr	r0, [sp, #120]	; 0x78
 8003872:	442a      	add	r2, r5
 8003874:	4344      	muls	r4, r0
 8003876:	0040      	lsls	r0, r0, #1
 8003878:	9211      	str	r2, [sp, #68]	; 0x44
 800387a:	9008      	str	r0, [sp, #32]
 800387c:	9004      	str	r0, [sp, #16]
 800387e:	9a0d      	ldr	r2, [sp, #52]	; 0x34
 8003880:	4293      	cmp	r3, r2
 8003882:	f000 8106 	beq.w	8003a92 <_Z28t_network_convolution_kernelILj5EEvPaS0_S0_S0_iijjjj+0x24e>
 8003886:	9a11      	ldr	r2, [sp, #68]	; 0x44
 8003888:	f04f 0900 	mov.w	r9, #0
 800388c:	9800      	ldr	r0, [sp, #0]
 800388e:	f8cd 900c 	str.w	r9, [sp, #12]
 8003892:	4402      	add	r2, r0
 8003894:	920e      	str	r2, [sp, #56]	; 0x38
 8003896:	9a08      	ldr	r2, [sp, #32]
 8003898:	9202      	str	r2, [sp, #8]
 800389a:	9a0b      	ldr	r2, [sp, #44]	; 0x2c
 800389c:	2500      	movs	r5, #0
 800389e:	9802      	ldr	r0, [sp, #8]
 80038a0:	444a      	add	r2, r9
 80038a2:	920c      	str	r2, [sp, #48]	; 0x30
 80038a4:	9a1e      	ldr	r2, [sp, #120]	; 0x78
 80038a6:	444a      	add	r2, r9
 80038a8:	9206      	str	r2, [sp, #24]
 80038aa:	9a1e      	ldr	r2, [sp, #120]	; 0x78
 80038ac:	4402      	add	r2, r0
 80038ae:	9207      	str	r2, [sp, #28]
 80038b0:	9a04      	ldr	r2, [sp, #16]
 80038b2:	444a      	add	r2, r9
 80038b4:	9210      	str	r2, [sp, #64]	; 0x40
 80038b6:	9a06      	ldr	r2, [sp, #24]
 80038b8:	eb05 0809 	add.w	r8, r5, r9
 80038bc:	9800      	ldr	r0, [sp, #0]
 80038be:	eb05 0c02 	add.w	ip, r5, r2
 80038c2:	9a02      	ldr	r2, [sp, #8]
 80038c4:	4488      	add	r8, r1
 80038c6:	eb05 0e02 	add.w	lr, r5, r2
 80038ca:	9a07      	ldr	r2, [sp, #28]
 80038cc:	448c      	add	ip, r1
 80038ce:	18af      	adds	r7, r5, r2
 80038d0:	9a0c      	ldr	r2, [sp, #48]	; 0x30
 80038d2:	448e      	add	lr, r1
 80038d4:	18ae      	adds	r6, r5, r2
 80038d6:	440f      	add	r7, r1
 80038d8:	2200      	movs	r2, #0
 80038da:	440e      	add	r6, r1
 80038dc:	9201      	str	r2, [sp, #4]
 80038de:	3019      	adds	r0, #25
 80038e0:	9a0e      	ldr	r2, [sp, #56]	; 0x38
 80038e2:	4290      	cmp	r0, r2
 80038e4:	f000 809e 	beq.w	8003a24 <_Z28t_network_convolution_kernelILj5EEvPaS0_S0_S0_iijjjj+0x1e0>
 80038e8:	f998 a000 	ldrsb.w	sl, [r8]
 80038ec:	f910 bc19 	ldrsb.w	fp, [r0, #-25]
 80038f0:	9a01      	ldr	r2, [sp, #4]
 80038f2:	fb1b 220a 	smlabb	r2, fp, sl, r2
 80038f6:	f998 a001 	ldrsb.w	sl, [r8, #1]
 80038fa:	f910 bc18 	ldrsb.w	fp, [r0, #-24]
 80038fe:	fb1b 220a 	smlabb	r2, fp, sl, r2
 8003902:	f998 a002 	ldrsb.w	sl, [r8, #2]
 8003906:	f910 bc17 	ldrsb.w	fp, [r0, #-23]
 800390a:	fb1b 220a 	smlabb	r2, fp, sl, r2
 800390e:	f998 a003 	ldrsb.w	sl, [r8, #3]
 8003912:	f910 bc16 	ldrsb.w	fp, [r0, #-22]
 8003916:	fb1b 220a 	smlabb	r2, fp, sl, r2
 800391a:	f998 a004 	ldrsb.w	sl, [r8, #4]
 800391e:	f910 bc15 	ldrsb.w	fp, [r0, #-21]
 8003922:	44a0      	add	r8, r4
 8003924:	fb1b 220a 	smlabb	r2, fp, sl, r2
 8003928:	f99c a000 	ldrsb.w	sl, [ip]
 800392c:	f910 bc14 	ldrsb.w	fp, [r0, #-20]
 8003930:	fb1b 220a 	smlabb	r2, fp, sl, r2
 8003934:	f99c a001 	ldrsb.w	sl, [ip, #1]
 8003938:	f910 bc13 	ldrsb.w	fp, [r0, #-19]
 800393c:	fb1b 220a 	smlabb	r2, fp, sl, r2
 8003940:	f99c a002 	ldrsb.w	sl, [ip, #2]
 8003944:	f910 bc12 	ldrsb.w	fp, [r0, #-18]
 8003948:	fb1b 220a 	smlabb	r2, fp, sl, r2
 800394c:	f99c a003 	ldrsb.w	sl, [ip, #3]
 8003950:	f910 bc11 	ldrsb.w	fp, [r0, #-17]
 8003954:	fb1b 220a 	smlabb	r2, fp, sl, r2
 8003958:	f99c a004 	ldrsb.w	sl, [ip, #4]
 800395c:	f910 bc10 	ldrsb.w	fp, [r0, #-16]
 8003960:	44a4      	add	ip, r4
 8003962:	fb1b 220a 	smlabb	r2, fp, sl, r2
 8003966:	f99e a000 	ldrsb.w	sl, [lr]
 800396a:	f910 bc0f 	ldrsb.w	fp, [r0, #-15]
 800396e:	fb1b 220a 	smlabb	r2, fp, sl, r2
 8003972:	f99e a001 	ldrsb.w	sl, [lr, #1]
 8003976:	f910 bc0e 	ldrsb.w	fp, [r0, #-14]
 800397a:	fb1b 220a 	smlabb	r2, fp, sl, r2
 800397e:	f99e a002 	ldrsb.w	sl, [lr, #2]
 8003982:	f910 bc0d 	ldrsb.w	fp, [r0, #-13]
 8003986:	fb1b 220a 	smlabb	r2, fp, sl, r2
 800398a:	f99e a003 	ldrsb.w	sl, [lr, #3]
 800398e:	f910 bc0c 	ldrsb.w	fp, [r0, #-12]
 8003992:	fb1b 220a 	smlabb	r2, fp, sl, r2
 8003996:	f910 bc0b 	ldrsb.w	fp, [r0, #-11]
 800399a:	f99e a004 	ldrsb.w	sl, [lr, #4]
 800399e:	44a6      	add	lr, r4
 80039a0:	fb1b 220a 	smlabb	r2, fp, sl, r2
 80039a4:	f910 bc0a 	ldrsb.w	fp, [r0, #-10]
 80039a8:	f997 a000 	ldrsb.w	sl, [r7]
 80039ac:	fb1b 220a 	smlabb	r2, fp, sl, r2
 80039b0:	f997 a001 	ldrsb.w	sl, [r7, #1]
 80039b4:	f910 bc09 	ldrsb.w	fp, [r0, #-9]
 80039b8:	fb1b 220a 	smlabb	r2, fp, sl, r2
 80039bc:	f997 a002 	ldrsb.w	sl, [r7, #2]
 80039c0:	f910 bc08 	ldrsb.w	fp, [r0, #-8]
 80039c4:	fb1b 220a 	smlabb	r2, fp, sl, r2
 80039c8:	f997 a003 	ldrsb.w	sl, [r7, #3]
 80039cc:	f910 bc07 	ldrsb.w	fp, [r0, #-7]
 80039d0:	fb1b 220a 	smlabb	r2, fp, sl, r2
 80039d4:	f997 a004 	ldrsb.w	sl, [r7, #4]
 80039d8:	f910 bc06 	ldrsb.w	fp, [r0, #-6]
 80039dc:	4427      	add	r7, r4
 80039de:	fb1b 220a 	smlabb	r2, fp, sl, r2
 80039e2:	f996 a000 	ldrsb.w	sl, [r6]
 80039e6:	f910 bc05 	ldrsb.w	fp, [r0, #-5]
 80039ea:	fb1b 220a 	smlabb	r2, fp, sl, r2
 80039ee:	f996 a001 	ldrsb.w	sl, [r6, #1]
 80039f2:	f910 bc04 	ldrsb.w	fp, [r0, #-4]
 80039f6:	fb1b 220a 	smlabb	r2, fp, sl, r2
 80039fa:	f996 a002 	ldrsb.w	sl, [r6, #2]
 80039fe:	f910 bc03 	ldrsb.w	fp, [r0, #-3]
 8003a02:	fb1b 220a 	smlabb	r2, fp, sl, r2
 8003a06:	f996 a003 	ldrsb.w	sl, [r6, #3]
 8003a0a:	f910 bc02 	ldrsb.w	fp, [r0, #-2]
 8003a0e:	fb1b 220a 	smlabb	r2, fp, sl, r2
 8003a12:	f996 a004 	ldrsb.w	sl, [r6, #4]
 8003a16:	f910 bc01 	ldrsb.w	fp, [r0, #-1]
 8003a1a:	4426      	add	r6, r4
 8003a1c:	fb1b 220a 	smlabb	r2, fp, sl, r2
 8003a20:	9201      	str	r2, [sp, #4]
 8003a22:	e75c      	b.n	80038de <_Z28t_network_convolution_kernelILj5EEvPaS0_S0_S0_iijjjj+0x9a>
 8003a24:	9801      	ldr	r0, [sp, #4]
 8003a26:	2680      	movs	r6, #128	; 0x80
 8003a28:	9a1c      	ldr	r2, [sp, #112]	; 0x70
 8003a2a:	4342      	muls	r2, r0
 8003a2c:	f993 0000 	ldrsb.w	r0, [r3]
 8003a30:	fb92 f2f6 	sdiv	r2, r2, r6
 8003a34:	9e1d      	ldr	r6, [sp, #116]	; 0x74
 8003a36:	fb06 2200 	mla	r2, r6, r0, r2
 8003a3a:	f44f 6080 	mov.w	r0, #1024	; 0x400
 8003a3e:	9e0f      	ldr	r6, [sp, #60]	; 0x3c
 8003a40:	fb92 f2f0 	sdiv	r2, r2, r0
 8003a44:	f06f 007e 	mvn.w	r0, #126	; 0x7e
 8003a48:	4282      	cmp	r2, r0
 8003a4a:	bfb8      	it	lt
 8003a4c:	4602      	movlt	r2, r0
 8003a4e:	9810      	ldr	r0, [sp, #64]	; 0x40
 8003a50:	2a7f      	cmp	r2, #127	; 0x7f
 8003a52:	4428      	add	r0, r5
 8003a54:	f105 0501 	add.w	r5, r5, #1
 8003a58:	bfa8      	it	ge
 8003a5a:	227f      	movge	r2, #127	; 0x7f
 8003a5c:	4430      	add	r0, r6
 8003a5e:	7082      	strb	r2, [r0, #2]
 8003a60:	9a0a      	ldr	r2, [sp, #40]	; 0x28
 8003a62:	42aa      	cmp	r2, r5
 8003a64:	f4bf af27 	bcs.w	80038b6 <_Z28t_network_convolution_kernelILj5EEvPaS0_S0_S0_iijjjj+0x72>
 8003a68:	9a03      	ldr	r2, [sp, #12]
 8003a6a:	f8dd 9018 	ldr.w	r9, [sp, #24]
 8003a6e:	3201      	adds	r2, #1
 8003a70:	9203      	str	r2, [sp, #12]
 8003a72:	9a07      	ldr	r2, [sp, #28]
 8003a74:	9803      	ldr	r0, [sp, #12]
 8003a76:	9202      	str	r2, [sp, #8]
 8003a78:	9a09      	ldr	r2, [sp, #36]	; 0x24
 8003a7a:	4282      	cmp	r2, r0
 8003a7c:	f4bf af0d 	bcs.w	800389a <_Z28t_network_convolution_kernelILj5EEvPaS0_S0_S0_iijjjj+0x56>
 8003a80:	9a04      	ldr	r2, [sp, #16]
 8003a82:	3301      	adds	r3, #1
 8003a84:	9805      	ldr	r0, [sp, #20]
 8003a86:	4422      	add	r2, r4
 8003a88:	9204      	str	r2, [sp, #16]
 8003a8a:	9a00      	ldr	r2, [sp, #0]
 8003a8c:	4402      	add	r2, r0
 8003a8e:	9200      	str	r2, [sp, #0]
 8003a90:	e6f5      	b.n	800387e <_Z28t_network_convolution_kernelILj5EEvPaS0_S0_S0_iijjjj+0x3a>
 8003a92:	b013      	add	sp, #76	; 0x4c
 8003a94:	e8bd 8ff0 	ldmia.w	sp!, {r4, r5, r6, r7, r8, r9, sl, fp, pc}

08003a98 <_Z26network_convolution_kernelPaS_S_S_ii14sLayerGeometryS0_>:
 8003a98:	e92d 4ff0 	stmdb	sp!, {r4, r5, r6, r7, r8, r9, sl, fp, lr}
 8003a9c:	b08d      	sub	sp, #52	; 0x34
 8003a9e:	4617      	mov	r7, r2
 8003aa0:	f8dd c06c 	ldr.w	ip, [sp, #108]	; 0x6c
 8003aa4:	9009      	str	r0, [sp, #36]	; 0x24
 8003aa6:	f1bc 0f03 	cmp.w	ip, #3
 8003aaa:	910a      	str	r1, [sp, #40]	; 0x28
 8003aac:	9c18      	ldr	r4, [sp, #96]	; 0x60
 8003aae:	f8dd e064 	ldr.w	lr, [sp, #100]	; 0x64
 8003ab2:	9d1a      	ldr	r5, [sp, #104]	; 0x68
 8003ab4:	9e1d      	ldr	r6, [sp, #116]	; 0x74
 8003ab6:	d056      	beq.n	8003b66 <_Z26network_convolution_kernelPaS_S_S_ii14sLayerGeometryS0_+0xce>
 8003ab8:	f1bc 0f05 	cmp.w	ip, #5
 8003abc:	d061      	beq.n	8003b82 <_Z26network_convolution_kernelPaS_S_S_ii14sLayerGeometryS0_+0xea>
 8003abe:	f1bc 0f01 	cmp.w	ip, #1
 8003ac2:	d15b      	bne.n	8003b7c <_Z26network_convolution_kernelPaS_S_S_ii14sLayerGeometryS0_+0xe4>
 8003ac4:	fb0e f204 	mul.w	r2, lr, r4
 8003ac8:	1999      	adds	r1, r3, r6
 8003aca:	f1c7 0c00 	rsb	ip, r7, #0
 8003ace:	f04f 0b00 	mov.w	fp, #0
 8003ad2:	9207      	str	r2, [sp, #28]
 8003ad4:	9706      	str	r7, [sp, #24]
 8003ad6:	9108      	str	r1, [sp, #32]
 8003ad8:	9908      	ldr	r1, [sp, #32]
 8003ada:	428b      	cmp	r3, r1
 8003adc:	d04e      	beq.n	8003b7c <_Z26network_convolution_kernelPaS_S_S_ii14sLayerGeometryS0_+0xe4>
 8003ade:	2000      	movs	r0, #0
 8003ae0:	4680      	mov	r8, r0
 8003ae2:	eb0b 0100 	add.w	r1, fp, r0
 8003ae6:	9f09      	ldr	r7, [sp, #36]	; 0x24
 8003ae8:	2600      	movs	r6, #0
 8003aea:	1879      	adds	r1, r7, r1
 8003aec:	910b      	str	r1, [sp, #44]	; 0x2c
 8003aee:	990a      	ldr	r1, [sp, #40]	; 0x28
 8003af0:	1987      	adds	r7, r0, r6
 8003af2:	f8dd 9018 	ldr.w	r9, [sp, #24]
 8003af6:	440f      	add	r7, r1
 8003af8:	2100      	movs	r1, #0
 8003afa:	eb0c 0a09 	add.w	sl, ip, r9
 8003afe:	4555      	cmp	r5, sl
 8003b00:	d908      	bls.n	8003b14 <_Z26network_convolution_kernelPaS_S_S_ii14sLayerGeometryS0_+0x7c>
 8003b02:	f919 2b01 	ldrsb.w	r2, [r9], #1
 8003b06:	f997 a000 	ldrsb.w	sl, [r7]
 8003b0a:	fb12 110a 	smlabb	r1, r2, sl, r1
 8003b0e:	9a07      	ldr	r2, [sp, #28]
 8003b10:	4417      	add	r7, r2
 8003b12:	e7f2      	b.n	8003afa <_Z26network_convolution_kernelPaS_S_S_ii14sLayerGeometryS0_+0x62>
 8003b14:	9a16      	ldr	r2, [sp, #88]	; 0x58
 8003b16:	f993 7000 	ldrsb.w	r7, [r3]
 8003b1a:	4351      	muls	r1, r2
 8003b1c:	2280      	movs	r2, #128	; 0x80
 8003b1e:	fb91 f1f2 	sdiv	r1, r1, r2
 8003b22:	9a17      	ldr	r2, [sp, #92]	; 0x5c
 8003b24:	fb02 1707 	mla	r7, r2, r7, r1
 8003b28:	f44f 6280 	mov.w	r2, #1024	; 0x400
 8003b2c:	fb97 f7f2 	sdiv	r7, r7, r2
 8003b30:	f06f 027e 	mvn.w	r2, #126	; 0x7e
 8003b34:	4297      	cmp	r7, r2
 8003b36:	bfb8      	it	lt
 8003b38:	4617      	movlt	r7, r2
 8003b3a:	9a0b      	ldr	r2, [sp, #44]	; 0x2c
 8003b3c:	2f7f      	cmp	r7, #127	; 0x7f
 8003b3e:	bfa8      	it	ge
 8003b40:	277f      	movge	r7, #127	; 0x7f
 8003b42:	5597      	strb	r7, [r2, r6]
 8003b44:	3601      	adds	r6, #1
 8003b46:	42b4      	cmp	r4, r6
 8003b48:	d2d1      	bcs.n	8003aee <_Z26network_convolution_kernelPaS_S_S_ii14sLayerGeometryS0_+0x56>
